c__builtin__
set
p1
((lp2
S'https://ks.anjuke.com/community/view/1031677'
p3
aS'https://ks.anjuke.com/community/view/1049765'
p4
aS'https://ks.anjuke.com/community/view/786642'
p5
aS'https://ks.anjuke.com/community/view/407367'
p6
aS'https://ks.anjuke.com/community/view/410755'
p7
aS'https://ks.anjuke.com/community/view/1031615'
p8
aS'https://ks.anjuke.com/community/view/418016'
p9
aS'https://ks.anjuke.com/community/view/650778'
p10
aS'https://ks.anjuke.com/community/view/1049685'
p11
aS'https://ks.anjuke.com/community/view/521114'
p12
aS'https://ks.anjuke.com/community/view/1031852'
p13
aS'https://ks.anjuke.com/community/view/816006'
p14
aS'https://ks.anjuke.com/community/view/376750'
p15
aS'https://ks.anjuke.com/community/view/1031651'
p16
aS'https://ks.anjuke.com/community/view/309948'
p17
aS'https://ks.anjuke.com/community/view/1031594'
p18
aS'https://ks.anjuke.com/community/view/1031596'
p19
aS'https://ks.anjuke.com/community/view/1060401'
p20
aS'https://ks.anjuke.com/community/view/1060403'
p21
aS'https://ks.anjuke.com/community/view/1060406'
p22
aS'https://ks.anjuke.com/community/view/310052'
p23
aS'https://ks.anjuke.com/community/view/461039'
p24
aS'https://ks.anjuke.com/community/view/1031838'
p25
aS'https://ks.anjuke.com/community/view/786704'
p26
aS'https://ks.anjuke.com/community/view/786672'
p27
aS'https://ks.anjuke.com/community/view/310048'
p28
aS'https://ks.anjuke.com/community/view/310040'
p29
aS'https://ks.anjuke.com/community/view/310041'
p30
aS'https://ks.anjuke.com/community/view/790496'
p31
aS'https://ks.anjuke.com/community/view/310225'
p32
aS'https://ks.anjuke.com/community/view/568713'
p33
aS'https://ks.anjuke.com/community/view/793711'
p34
aS'https://ks.anjuke.com/community/view/786602'
p35
aS'https://ks.anjuke.com/community/view/786609'
p36
aS'https://ks.anjuke.com/community/view/786608'
p37
aS'https://ks.anjuke.com/community/view/1031924'
p38
aS'https://ks.anjuke.com/community/view/310244'
p39
aS'https://ks.anjuke.com/community/view/786616'
p40
aS'https://ks.anjuke.com/community/view/310021'
p41
aS'https://ks.anjuke.com/community/view/547688'
p42
aS'https://ks.anjuke.com/community/view/310481'
p43
aS'https://ks.anjuke.com/community/view/310371'
p44
aS'https://ks.anjuke.com/community/view/1031799'
p45
aS'https://ks.anjuke.com/community/view/372810'
p46
aS'https://ks.anjuke.com/community/view/547289'
p47
aS'https://ks.anjuke.com/community/view/309702'
p48
aS'https://ks.anjuke.com/community/view/1049764'
p49
aS'https://ks.anjuke.com/community/view/1035419'
p50
aS'https://ks.anjuke.com/community/view/1049766'
p51
aS'https://ks.anjuke.com/community/view/1049761'
p52
aS'https://ks.anjuke.com/community/view/786622'
p53
aS'https://ks.anjuke.com/community/view/1049776'
p54
aS'https://ks.anjuke.com/community/view/1049775'
p55
aS'https://ks.anjuke.com/community/view/1031948'
p56
aS'https://ks.anjuke.com/community/view/1049771'
p57
aS'https://ks.anjuke.com/community/view/1049770'
p58
aS'https://ks.anjuke.com/community/view/1031940'
p59
aS'https://ks.anjuke.com/community/view/786587'
p60
aS'https://ks.anjuke.com/community/view/786588'
p61
aS'https://ks.anjuke.com/community/view/786589'
p62
aS'https://ks.anjuke.com/community/view/1031669'
p63
aS'https://ks.anjuke.com/community/view/1031664'
p64
aS'https://ks.anjuke.com/community/view/1031680'
p65
aS'https://ks.anjuke.com/community/view/1031681'
p66
aS'https://ks.anjuke.com/community/view/1031682'
p67
aS'https://ks.anjuke.com/community/view/1031683'
p68
aS'https://ks.anjuke.com/community/view/1031684'
p69
aS'https://ks.anjuke.com/community/view/309720'
p70
aS'https://ks.anjuke.com/community/view/1031686'
p71
aS'https://ks.anjuke.com/community/view/1031750'
p72
aS'https://ks.anjuke.com/community/view/1031751'
p73
aS'https://ks.anjuke.com/community/view/1031757'
p74
aS'https://ks.anjuke.com/community/view/1035237'
p75
aS'https://ks.anjuke.com/community/view/1031755'
p76
aS'https://ks.anjuke.com/community/view/653092'
p77
aS'https://ks.anjuke.com/community/view/310109'
p78
aS'https://ks.anjuke.com/community/view/795413'
p79
aS'https://ks.anjuke.com/community/view/372861'
p80
aS'https://ks.anjuke.com/community/view/806464'
p81
aS'https://ks.anjuke.com/community/view/309739'
p82
aS'https://ks.anjuke.com/community/view/314949'
p83
aS'https://ks.anjuke.com/community/view/580556'
p84
aS'https://ks.anjuke.com/community/view/793448'
p85
aS'https://ks.anjuke.com/community/view/310118'
p86
aS'https://ks.anjuke.com/community/view/310286'
p87
aS'https://ks.anjuke.com/community/view/795467'
p88
aS'https://ks.anjuke.com/community/view/795466'
p89
aS'https://ks.anjuke.com/community/view/372853'
p90
aS'https://ks.anjuke.com/community/view/372852'
p91
aS'https://ks.anjuke.com/community/view/372855'
p92
aS'https://ks.anjuke.com/community/view/372857'
p93
aS'https://ks.anjuke.com/community/view/372856'
p94
aS'https://ks.anjuke.com/community/view/599314'
p95
aS'https://ks.anjuke.com/community/view/415683'
p96
aS'https://ks.anjuke.com/community/view/309747'
p97
aS'https://ks.anjuke.com/community/view/309746'
p98
aS'https://ks.anjuke.com/community/view/309745'
p99
aS'https://ks.anjuke.com/community/view/309744'
p100
aS'https://ks.anjuke.com/community/view/309743'
p101
aS'https://ks.anjuke.com/community/view/309742'
p102
aS'https://ks.anjuke.com/community/view/309741'
p103
aS'https://ks.anjuke.com/community/view/309740'
p104
aS'https://ks.anjuke.com/community/view/309749'
p105
aS'https://ks.anjuke.com/community/view/309748'
p106
aS'https://ks.anjuke.com/community/view/1054094'
p107
aS'https://ks.anjuke.com/community/view/650053'
p108
aS'https://ks.anjuke.com/community/view/1031731'
p109
aS'https://ks.anjuke.com/community/view/1031732'
p110
aS'https://ks.anjuke.com/community/view/1031734'
p111
aS'https://ks.anjuke.com/community/view/1031736'
p112
aS'https://ks.anjuke.com/community/view/1031738'
p113
aS'https://ks.anjuke.com/community/view/721092'
p114
aS'https://ks.anjuke.com/community/view/421798'
p115
aS'https://ks.anjuke.com/community/view/470903'
p116
aS'https://ks.anjuke.com/community/view/448206'
p117
aS'https://ks.anjuke.com/community/view/591880'
p118
aS'https://ks.anjuke.com/community/view/314954'
p119
aS'https://ks.anjuke.com/community/view/314956'
p120
aS'https://ks.anjuke.com/community/view/1031649'
p121
aS'https://ks.anjuke.com/community/view/1031645'
p122
aS'https://ks.anjuke.com/community/view/1031646'
p123
aS'https://ks.anjuke.com/community/view/332381'
p124
aS'https://ks.anjuke.com/community/view/314959'
p125
aS'https://ks.anjuke.com/community/view/572712'
p126
aS'https://ks.anjuke.com/community/view/571021'
p127
aS'https://ks.anjuke.com/community/view/566974'
p128
aS'https://ks.anjuke.com/community/view/457091'
p129
aS'https://ks.anjuke.com/community/view/448842'
p130
aS'https://ks.anjuke.com/community/view/458659'
p131
aS'https://ks.anjuke.com/community/view/786557'
p132
aS'https://ks.anjuke.com/community/view/786556'
p133
aS'https://ks.anjuke.com/community/view/786555'
p134
aS'https://ks.anjuke.com/community/view/786554'
p135
aS'https://ks.anjuke.com/community/view/786559'
p136
aS'https://ks.anjuke.com/community/view/786558'
p137
aS'https://ks.anjuke.com/community/view/786315'
p138
aS'https://ks.anjuke.com/community/view/786314'
p139
aS'https://ks.anjuke.com/community/view/786316'
p140
aS'https://ks.anjuke.com/community/view/487094'
p141
aS'https://ks.anjuke.com/community/view/309915'
p142
aS'https://ks.anjuke.com/community/view/796134'
p143
aS'https://ks.anjuke.com/community/view/357569'
p144
aS'https://ks.anjuke.com/community/view/1033248'
p145
aS'https://ks.anjuke.com/community/view/1033249'
p146
aS'https://ks.anjuke.com/community/view/1033246'
p147
aS'https://ks.anjuke.com/community/view/1033247'
p148
aS'https://ks.anjuke.com/community/view/1033244'
p149
aS'https://ks.anjuke.com/community/view/1033245'
p150
aS'https://ks.anjuke.com/community/view/1033242'
p151
aS'https://ks.anjuke.com/community/view/1033243'
p152
aS'https://ks.anjuke.com/community/view/1033240'
p153
aS'https://ks.anjuke.com/community/view/1033241'
p154
aS'https://ks.anjuke.com/community/view/310120'
p155
aS'https://ks.anjuke.com/community/view/567763'
p156
aS'https://ks.anjuke.com/community/view/309808'
p157
aS'https://ks.anjuke.com/community/view/309804'
p158
aS'https://ks.anjuke.com/community/view/309805'
p159
aS'https://ks.anjuke.com/community/view/309806'
p160
aS'https://ks.anjuke.com/community/view/309807'
p161
aS'https://ks.anjuke.com/community/view/309800'
p162
aS'https://ks.anjuke.com/community/view/309801'
p163
aS'https://ks.anjuke.com/community/view/309802'
p164
aS'https://ks.anjuke.com/community/view/309803'
p165
aS'https://ks.anjuke.com/community/view/309931'
p166
aS'https://ks.anjuke.com/community/view/309932'
p167
aS'https://ks.anjuke.com/community/view/309933'
p168
aS'https://ks.anjuke.com/community/view/309934'
p169
aS'https://ks.anjuke.com/community/view/309935'
p170
aS'https://ks.anjuke.com/community/view/309936'
p171
aS'https://ks.anjuke.com/community/view/309937'
p172
aS'https://ks.anjuke.com/community/view/309938'
p173
aS'https://ks.anjuke.com/community/view/309939'
p174
aS'https://ks.anjuke.com/community/view/800033'
p175
aS'https://ks.anjuke.com/community/view/310251'
p176
aS'https://ks.anjuke.com/community/view/310250'
p177
aS'https://ks.anjuke.com/community/view/310257'
p178
aS'https://ks.anjuke.com/community/view/310256'
p179
aS'https://ks.anjuke.com/community/view/310255'
p180
aS'https://ks.anjuke.com/community/view/310254'
p181
aS'https://ks.anjuke.com/community/view/310419'
p182
aS'https://ks.anjuke.com/community/view/310418'
p183
aS'https://ks.anjuke.com/community/view/310415'
p184
aS'https://ks.anjuke.com/community/view/310414'
p185
aS'https://ks.anjuke.com/community/view/310417'
p186
aS'https://ks.anjuke.com/community/view/310416'
p187
aS'https://ks.anjuke.com/community/view/1035404'
p188
aS'https://ks.anjuke.com/community/view/1035405'
p189
aS'https://ks.anjuke.com/community/view/1035403'
p190
aS'https://ks.anjuke.com/community/view/1035400'
p191
aS'https://ks.anjuke.com/community/view/1035401'
p192
aS'https://ks.anjuke.com/community/view/800564'
p193
aS'https://ks.anjuke.com/community/view/1035408'
p194
aS'https://ks.anjuke.com/community/view/1035409'
p195
aS'https://ks.anjuke.com/community/view/309754'
p196
aS'https://ks.anjuke.com/community/view/309755'
p197
aS'https://ks.anjuke.com/community/view/309756'
p198
aS'https://ks.anjuke.com/community/view/635913'
p199
aS'https://ks.anjuke.com/community/view/310274'
p200
aS'https://ks.anjuke.com/community/view/1035379'
p201
aS'https://ks.anjuke.com/community/view/1035374'
p202
aS'https://ks.anjuke.com/community/view/1035375'
p203
aS'https://ks.anjuke.com/community/view/1035376'
p204
aS'https://ks.anjuke.com/community/view/1035377'
p205
aS'https://ks.anjuke.com/community/view/1035370'
p206
aS'https://ks.anjuke.com/community/view/1035371'
p207
aS'https://ks.anjuke.com/community/view/1035372'
p208
aS'https://ks.anjuke.com/community/view/1035373'
p209
aS'https://ks.anjuke.com/community/view/374195'
p210
aS'https://ks.anjuke.com/community/view/614474'
p211
aS'https://ks.anjuke.com/community/view/314960'
p212
aS'https://ks.anjuke.com/community/view/314963'
p213
aS'https://ks.anjuke.com/community/view/314966'
p214
aS'https://ks.anjuke.com/community/view/607849'
p215
aS'https://ks.anjuke.com/community/view/319721'
p216
aS'https://ks.anjuke.com/community/view/1031659'
p217
aS'https://ks.anjuke.com/community/view/580154'
p218
aS'https://ks.anjuke.com/community/view/1031657'
p219
aS'https://ks.anjuke.com/community/view/1031656'
p220
aS'https://ks.anjuke.com/community/view/1031655'
p221
aS'https://ks.anjuke.com/community/view/1031653'
p222
aS'https://ks.anjuke.com/community/view/799036'
p223
aS'https://ks.anjuke.com/community/view/378292'
p224
aS'https://ks.anjuke.com/community/view/316013'
p225
aS'https://ks.anjuke.com/community/view/316012'
p226
aS'https://ks.anjuke.com/community/view/583576'
p227
aS'https://ks.anjuke.com/community/view/635217'
p228
aS'https://ks.anjuke.com/community/view/596521'
p229
aS'https://ks.anjuke.com/community/view/479740'
p230
aS'https://ks.anjuke.com/community/view/596523'
p231
aS'https://ks.anjuke.com/community/view/596522'
p232
aS'https://ks.anjuke.com/community/view/472067'
p233
aS'https://ks.anjuke.com/community/view/452706'
p234
aS'https://ks.anjuke.com/community/view/537918'
p235
aS'https://ks.anjuke.com/community/view/401564'
p236
aS'https://ks.anjuke.com/community/view/793517'
p237
aS'https://ks.anjuke.com/community/view/728615'
p238
aS'https://ks.anjuke.com/community/view/800812'
p239
aS'https://ks.anjuke.com/community/view/587295'
p240
aS'https://ks.anjuke.com/community/view/325208'
p241
aS'https://ks.anjuke.com/community/view/793464'
p242
aS'https://ks.anjuke.com/community/view/368664'
p243
aS'https://ks.anjuke.com/community/view/1047111'
p244
aS'https://ks.anjuke.com/community/view/1047112'
p245
aS'https://ks.anjuke.com/community/view/628144'
p246
aS'https://ks.anjuke.com/community/view/486954'
p247
aS'https://ks.anjuke.com/community/view/995242'
p248
aS'https://ks.anjuke.com/community/view/315945'
p249
aS'https://ks.anjuke.com/community/view/309831'
p250
aS'https://ks.anjuke.com/community/view/309830'
p251
aS'https://ks.anjuke.com/community/view/309833'
p252
aS'https://ks.anjuke.com/community/view/309832'
p253
aS'https://ks.anjuke.com/community/view/309835'
p254
aS'https://ks.anjuke.com/community/view/309834'
p255
aS'https://ks.anjuke.com/community/view/309837'
p256
aS'https://ks.anjuke.com/community/view/309836'
p257
aS'https://ks.anjuke.com/community/view/309839'
p258
aS'https://ks.anjuke.com/community/view/309838'
p259
aS'https://ks.anjuke.com/community/view/801961'
p260
aS'https://ks.anjuke.com/community/view/309905'
p261
aS'https://ks.anjuke.com/community/view/309904'
p262
aS'https://ks.anjuke.com/community/view/309907'
p263
aS'https://ks.anjuke.com/community/view/309906'
p264
aS'https://ks.anjuke.com/community/view/309900'
p265
aS'https://ks.anjuke.com/community/view/309903'
p266
aS'https://ks.anjuke.com/community/view/309902'
p267
aS'https://ks.anjuke.com/community/view/503801'
p268
aS'https://ks.anjuke.com/community/view/309909'
p269
aS'https://ks.anjuke.com/community/view/309908'
p270
aS'https://ks.anjuke.com/community/view/406487'
p271
aS'https://ks.anjuke.com/community/view/340109'
p272
aS'https://ks.anjuke.com/community/view/785309'
p273
aS'https://ks.anjuke.com/community/view/785308'
p274
aS'https://ks.anjuke.com/community/view/375878'
p275
aS'https://ks.anjuke.com/community/view/549110'
p276
aS'https://ks.anjuke.com/community/view/452298'
p277
aS'https://ks.anjuke.com/community/view/656582'
p278
aS'https://ks.anjuke.com/community/view/656583'
p279
aS'https://ks.anjuke.com/community/view/310398'
p280
aS'https://ks.anjuke.com/community/view/656581'
p281
aS'https://ks.anjuke.com/community/view/656586'
p282
aS'https://ks.anjuke.com/community/view/310396'
p283
aS'https://ks.anjuke.com/community/view/310397'
p284
aS'https://ks.anjuke.com/community/view/609998'
p285
aS'https://ks.anjuke.com/community/view/310248'
p286
aS'https://ks.anjuke.com/community/view/310249'
p287
aS'https://ks.anjuke.com/community/view/400884'
p288
aS'https://ks.anjuke.com/community/view/310240'
p289
aS'https://ks.anjuke.com/community/view/310241'
p290
aS'https://ks.anjuke.com/community/view/310242'
p291
aS'https://ks.anjuke.com/community/view/310243'
p292
aS'https://ks.anjuke.com/community/view/548229'
p293
aS'https://ks.anjuke.com/community/view/310245'
p294
aS'https://ks.anjuke.com/community/view/310246'
p295
aS'https://ks.anjuke.com/community/view/310247'
p296
aS'https://ks.anjuke.com/community/view/310402'
p297
aS'https://ks.anjuke.com/community/view/310403'
p298
aS'https://ks.anjuke.com/community/view/310400'
p299
aS'https://ks.anjuke.com/community/view/310406'
p300
aS'https://ks.anjuke.com/community/view/310407'
p301
aS'https://ks.anjuke.com/community/view/310404'
p302
aS'https://ks.anjuke.com/community/view/310405'
p303
aS'https://ks.anjuke.com/community/view/310408'
p304
aS'https://ks.anjuke.com/community/view/310409'
p305
aS'https://ks.anjuke.com/community/view/615247'
p306
aS'https://ks.anjuke.com/community/view/495862'
p307
aS'https://ks.anjuke.com/community/view/309697'
p308
aS'https://ks.anjuke.com/community/view/309699'
p309
aS'https://ks.anjuke.com/community/view/309698'
p310
aS'https://ks.anjuke.com/community/view/318357'
p311
aS'https://ks.anjuke.com/community/view/780352'
p312
aS'https://ks.anjuke.com/community/view/793981'
p313
aS'https://ks.anjuke.com/community/view/1035381'
p314
aS'https://ks.anjuke.com/community/view/1035380'
p315
aS'https://ks.anjuke.com/community/view/1035383'
p316
aS'https://ks.anjuke.com/community/view/1035382'
p317
aS'https://ks.anjuke.com/community/view/1035385'
p318
aS'https://ks.anjuke.com/community/view/1035384'
p319
aS'https://ks.anjuke.com/community/view/1035387'
p320
aS'https://ks.anjuke.com/community/view/1035386'
p321
aS'https://ks.anjuke.com/community/view/1035389'
p322
aS'https://ks.anjuke.com/community/view/1035388'
p323
aS'https://ks.anjuke.com/community/view/1035411'
p324
aS'https://ks.anjuke.com/community/view/1035410'
p325
aS'https://ks.anjuke.com/community/view/1035413'
p326
aS'https://ks.anjuke.com/community/view/1035412'
p327
aS'https://ks.anjuke.com/community/view/1035415'
p328
aS'https://ks.anjuke.com/community/view/1035414'
p329
aS'https://ks.anjuke.com/community/view/1035417'
p330
aS'https://ks.anjuke.com/community/view/1035416'
p331
aS'https://ks.anjuke.com/community/view/800576'
p332
aS'https://ks.anjuke.com/community/view/1035418'
p333
aS'https://ks.anjuke.com/community/view/800575'
p334
aS'https://ks.anjuke.com/community/view/800570'
p335
aS'https://ks.anjuke.com/community/view/309769'
p336
aS'https://ks.anjuke.com/community/view/795596'
p337
aS'https://ks.anjuke.com/community/view/309761'
p338
aS'https://ks.anjuke.com/community/view/309760'
p339
aS'https://ks.anjuke.com/community/view/309763'
p340
aS'https://ks.anjuke.com/community/view/309762'
p341
aS'https://ks.anjuke.com/community/view/309765'
p342
aS'https://ks.anjuke.com/community/view/309764'
p343
aS'https://ks.anjuke.com/community/view/309767'
p344
aS'https://ks.anjuke.com/community/view/309766'
p345
aS'https://ks.anjuke.com/community/view/805455'
p346
aS'https://ks.anjuke.com/community/view/426561'
p347
aS'https://ks.anjuke.com/community/view/1049706'
p348
aS'https://ks.anjuke.com/community/view/1049707'
p349
aS'https://ks.anjuke.com/community/view/1049704'
p350
aS'https://ks.anjuke.com/community/view/1049705'
p351
aS'https://ks.anjuke.com/community/view/1049702'
p352
aS'https://ks.anjuke.com/community/view/1049703'
p353
aS'https://ks.anjuke.com/community/view/1031718'
p354
aS'https://ks.anjuke.com/community/view/1049701'
p355
aS'https://ks.anjuke.com/community/view/1031716'
p356
aS'https://ks.anjuke.com/community/view/1031715'
p357
aS'https://ks.anjuke.com/community/view/1031713'
p358
aS'https://ks.anjuke.com/community/view/1049708'
p359
aS'https://ks.anjuke.com/community/view/1049709'
p360
aS'https://ks.anjuke.com/community/view/807929'
p361
aS'https://ks.anjuke.com/community/view/591154'
p362
aS'https://ks.anjuke.com/community/view/614681'
p363
aS'https://ks.anjuke.com/community/view/1035369'
p364
aS'https://ks.anjuke.com/community/view/1035368'
p365
aS'https://ks.anjuke.com/community/view/1035367'
p366
aS'https://ks.anjuke.com/community/view/1035366'
p367
aS'https://ks.anjuke.com/community/view/1035365'
p368
aS'https://ks.anjuke.com/community/view/1035364'
p369
aS'https://ks.anjuke.com/community/view/1035363'
p370
aS'https://ks.anjuke.com/community/view/1035362'
p371
aS'https://ks.anjuke.com/community/view/1035361'
p372
aS'https://ks.anjuke.com/community/view/1035360'
p373
aS'https://ks.anjuke.com/community/view/314888'
p374
aS'https://ks.anjuke.com/community/view/523930'
p375
aS'https://ks.anjuke.com/community/view/314881'
p376
aS'https://ks.anjuke.com/community/view/403869'
p377
aS'https://ks.anjuke.com/community/view/1031886'
p378
aS'https://ks.anjuke.com/community/view/1031884'
p379
aS'https://ks.anjuke.com/community/view/1031885'
p380
aS'https://ks.anjuke.com/community/view/1031882'
p381
aS'https://ks.anjuke.com/community/view/1031883'
p382
aS'https://ks.anjuke.com/community/view/1031880'
p383
aS'https://ks.anjuke.com/community/view/1031881'
p384
aS'https://ks.anjuke.com/community/view/1031662'
p385
aS'https://ks.anjuke.com/community/view/1031663'
p386
aS'https://ks.anjuke.com/community/view/1031660'
p387
aS'https://ks.anjuke.com/community/view/1031661'
p388
aS'https://ks.anjuke.com/community/view/1031666'
p389
aS'https://ks.anjuke.com/community/view/1031667'
p390
aS'https://ks.anjuke.com/community/view/1031888'
p391
aS'https://ks.anjuke.com/community/view/1031665'
p392
aS'https://ks.anjuke.com/community/view/404072'
p393
aS'https://ks.anjuke.com/community/view/404077'
p394
aS'https://ks.anjuke.com/community/view/551936'
p395
aS'https://ks.anjuke.com/community/view/404075'
p396
aS'https://ks.anjuke.com/community/view/378282'
p397
aS'https://ks.anjuke.com/community/view/619830'
p398
aS'https://ks.anjuke.com/community/view/1049679'
p399
aS'https://ks.anjuke.com/community/view/1049676'
p400
aS'https://ks.anjuke.com/community/view/1049677'
p401
aS'https://ks.anjuke.com/community/view/1049674'
p402
aS'https://ks.anjuke.com/community/view/1049675'
p403
aS'https://ks.anjuke.com/community/view/1049672'
p404
aS'https://ks.anjuke.com/community/view/1049673'
p405
aS'https://ks.anjuke.com/community/view/1049671'
p406
aS'https://ks.anjuke.com/community/view/332078'
p407
aS'https://ks.anjuke.com/community/view/454271'
p408
aS'https://ks.anjuke.com/community/view/572020'
p409
aS'https://ks.anjuke.com/community/view/309771'
p410
aS'https://ks.anjuke.com/community/view/543275'
p411
aS'https://ks.anjuke.com/community/view/372058'
p412
aS'https://ks.anjuke.com/community/view/1031868'
p413
aS'https://ks.anjuke.com/community/view/1031869'
p414
aS'https://ks.anjuke.com/community/view/1031864'
p415
aS'https://ks.anjuke.com/community/view/1031865'
p416
aS'https://ks.anjuke.com/community/view/1031866'
p417
aS'https://ks.anjuke.com/community/view/1031867'
p418
aS'https://ks.anjuke.com/community/view/1031860'
p419
aS'https://ks.anjuke.com/community/view/1031861'
p420
aS'https://ks.anjuke.com/community/view/1031862'
p421
aS'https://ks.anjuke.com/community/view/1031863'
p422
aS'https://ks.anjuke.com/community/view/642055'
p423
aS'https://ks.anjuke.com/community/view/786575'
p424
aS'https://ks.anjuke.com/community/view/786574'
p425
aS'https://ks.anjuke.com/community/view/786577'
p426
aS'https://ks.anjuke.com/community/view/786576'
p427
aS'https://ks.anjuke.com/community/view/786571'
p428
aS'https://ks.anjuke.com/community/view/786570'
p429
aS'https://ks.anjuke.com/community/view/786573'
p430
aS'https://ks.anjuke.com/community/view/786572'
p431
aS'https://ks.anjuke.com/community/view/517518'
p432
aS'https://ks.anjuke.com/community/view/786579'
p433
aS'https://ks.anjuke.com/community/view/786578'
p434
aS'https://ks.anjuke.com/community/view/572204'
p435
aS'https://ks.anjuke.com/community/view/375701'
p436
aS'https://ks.anjuke.com/community/view/319860'
p437
aS'https://ks.anjuke.com/community/view/405297'
p438
aS'https://ks.anjuke.com/community/view/535214'
p439
aS'https://ks.anjuke.com/community/view/1035288'
p440
aS'https://ks.anjuke.com/community/view/657622'
p441
aS'https://ks.anjuke.com/community/view/786689'
p442
aS'https://ks.anjuke.com/community/view/786688'
p443
aS'https://ks.anjuke.com/community/view/786687'
p444
aS'https://ks.anjuke.com/community/view/786685'
p445
aS'https://ks.anjuke.com/community/view/613322'
p446
aS'https://ks.anjuke.com/community/view/786683'
p447
aS'https://ks.anjuke.com/community/view/786682'
p448
aS'https://ks.anjuke.com/community/view/786681'
p449
aS'https://ks.anjuke.com/community/view/786680'
p450
aS'https://ks.anjuke.com/community/view/1031668'
p451
aS'https://ks.anjuke.com/community/view/786377'
p452
aS'https://ks.anjuke.com/community/view/786376'
p453
aS'https://ks.anjuke.com/community/view/786375'
p454
aS'https://ks.anjuke.com/community/view/316223'
p455
aS'https://ks.anjuke.com/community/view/404080'
p456
aS'https://ks.anjuke.com/community/view/659279'
p457
aS'https://ks.anjuke.com/community/view/786752'
p458
aS'https://ks.anjuke.com/community/view/309826'
p459
aS'https://ks.anjuke.com/community/view/309827'
p460
aS'https://ks.anjuke.com/community/view/309824'
p461
aS'https://ks.anjuke.com/community/view/309825'
p462
aS'https://ks.anjuke.com/community/view/309822'
p463
aS'https://ks.anjuke.com/community/view/309823'
p464
aS'https://ks.anjuke.com/community/view/309820'
p465
aS'https://ks.anjuke.com/community/view/412461'
p466
aS'https://ks.anjuke.com/community/view/310091'
p467
aS'https://ks.anjuke.com/community/view/309913'
p468
aS'https://ks.anjuke.com/community/view/309910'
p469
aS'https://ks.anjuke.com/community/view/309916'
p470
aS'https://ks.anjuke.com/community/view/310094'
p471
aS'https://ks.anjuke.com/community/view/309914'
p472
aS'https://ks.anjuke.com/community/view/310096'
p473
aS'https://ks.anjuke.com/community/view/797400'
p474
aS'https://ks.anjuke.com/community/view/310279'
p475
aS'https://ks.anjuke.com/community/view/310278'
p476
aS'https://ks.anjuke.com/community/view/1084644'
p477
aS'https://ks.anjuke.com/community/view/1084645'
p478
aS'https://ks.anjuke.com/community/view/310277'
p479
aS'https://ks.anjuke.com/community/view/310276'
p480
aS'https://ks.anjuke.com/community/view/310271'
p481
aS'https://ks.anjuke.com/community/view/310270'
p482
aS'https://ks.anjuke.com/community/view/310272'
p483
aS'https://ks.anjuke.com/community/view/310477'
p484
aS'https://ks.anjuke.com/community/view/310476'
p485
aS'https://ks.anjuke.com/community/view/310479'
p486
aS'https://ks.anjuke.com/community/view/1072182'
p487
aS'https://ks.anjuke.com/community/view/1072183'
p488
aS'https://ks.anjuke.com/community/view/1072180'
p489
aS'https://ks.anjuke.com/community/view/1072181'
p490
aS'https://ks.anjuke.com/community/view/1072188'
p491
aS'https://ks.anjuke.com/community/view/489205'
p492
aS'https://ks.anjuke.com/community/view/363486'
p493
aS'https://ks.anjuke.com/community/view/800585'
p494
aS'https://ks.anjuke.com/community/view/658983'
p495
aS'https://ks.anjuke.com/community/view/414148'
p496
aS'https://ks.anjuke.com/community/view/309778'
p497
aS'https://ks.anjuke.com/community/view/309776'
p498
aS'https://ks.anjuke.com/community/view/309777'
p499
aS'https://ks.anjuke.com/community/view/309774'
p500
aS'https://ks.anjuke.com/community/view/309775'
p501
aS'https://ks.anjuke.com/community/view/309772'
p502
aS'https://ks.anjuke.com/community/view/309773'
p503
aS'https://ks.anjuke.com/community/view/309770'
p504
aS'https://ks.anjuke.com/community/view/618305'
p505
aS'https://ks.anjuke.com/community/view/380125'
p506
aS'https://ks.anjuke.com/community/view/1049711'
p507
aS'https://ks.anjuke.com/community/view/1049710'
p508
aS'https://ks.anjuke.com/community/view/1049713'
p509
aS'https://ks.anjuke.com/community/view/1049712'
p510
aS'https://ks.anjuke.com/community/view/1049715'
p511
aS'https://ks.anjuke.com/community/view/1049714'
p512
aS'https://ks.anjuke.com/community/view/1049717'
p513
aS'https://ks.anjuke.com/community/view/1049716'
p514
aS'https://ks.anjuke.com/community/view/1035280'
p515
aS'https://ks.anjuke.com/community/view/1049718'
p516
aS'https://ks.anjuke.com/community/view/1035282'
p517
aS'https://ks.anjuke.com/community/view/1035283'
p518
aS'https://ks.anjuke.com/community/view/1031705'
p519
aS'https://ks.anjuke.com/community/view/1035285'
p520
aS'https://ks.anjuke.com/community/view/1031707'
p521
aS'https://ks.anjuke.com/community/view/1035287'
p522
aS'https://ks.anjuke.com/community/view/1072168'
p523
aS'https://ks.anjuke.com/community/view/1072169'
p524
aS'https://ks.anjuke.com/community/view/1072164'
p525
aS'https://ks.anjuke.com/community/view/1072165'
p526
aS'https://ks.anjuke.com/community/view/1072166'
p527
aS'https://ks.anjuke.com/community/view/1072167'
p528
aS'https://ks.anjuke.com/community/view/1072160'
p529
aS'https://ks.anjuke.com/community/view/1072161'
p530
aS'https://ks.anjuke.com/community/view/1072162'
p531
aS'https://ks.anjuke.com/community/view/1072163'
p532
aS'https://ks.anjuke.com/community/view/1035359'
p533
aS'https://ks.anjuke.com/community/view/1035352'
p534
aS'https://ks.anjuke.com/community/view/1035353'
p535
aS'https://ks.anjuke.com/community/view/1035350'
p536
aS'https://ks.anjuke.com/community/view/1035351'
p537
aS'https://ks.anjuke.com/community/view/1035356'
p538
aS'https://ks.anjuke.com/community/view/1035357'
p539
aS'https://ks.anjuke.com/community/view/1035354'
p540
aS'https://ks.anjuke.com/community/view/1035355'
p541
atRp542
.