c__builtin__
set
p1
((lp2
S'https://ks.anjuke.com/community/view/778395'
p3
aS'https://ks.anjuke.com/community/view/1031891'
p4
aS'https://ks.anjuke.com/community/view/1031890'
p5
aS'https://ks.anjuke.com/community/view/1031893'
p6
aS'https://ks.anjuke.com/community/view/1031676'
p7
aS'https://ks.anjuke.com/community/view/1031895'
p8
aS'https://ks.anjuke.com/community/view/1031670'
p9
aS'https://ks.anjuke.com/community/view/1031897'
p10
aS'https://ks.anjuke.com/community/view/1031672'
p11
aS'https://ks.anjuke.com/community/view/1031898'
p12
aS'https://ks.anjuke.com/community/view/1031679'
p13
aS'https://ks.anjuke.com/community/view/1031678'
p14
aS'https://ks.anjuke.com/community/view/353780'
p15
aS'https://ks.anjuke.com/community/view/729057'
p16
aS'https://ks.anjuke.com/community/view/404885'
p17
aS'https://ks.anjuke.com/community/view/730161'
p18
aS'https://ks.anjuke.com/community/view/619955'
p19
aS'https://ks.anjuke.com/community/view/319673'
p20
aS'https://ks.anjuke.com/community/view/787763'
p21
aS'https://ks.anjuke.com/community/view/1031675'
p22
aS'https://ks.anjuke.com/community/view/321679'
p23
aS'https://ks.anjuke.com/community/view/1031674'
p24
aS'https://ks.anjuke.com/community/view/616215'
p25
aS'https://ks.anjuke.com/community/view/607825'
p26
aS'https://ks.anjuke.com/community/view/792045'
p27
aS'https://ks.anjuke.com/community/view/1049815'
p28
aS'https://ks.anjuke.com/community/view/317528'
p29
aS'https://ks.anjuke.com/community/view/1031879'
p30
aS'https://ks.anjuke.com/community/view/1031878'
p31
aS'https://ks.anjuke.com/community/view/1031877'
p32
aS'https://ks.anjuke.com/community/view/1031876'
p33
aS'https://ks.anjuke.com/community/view/1031875'
p34
aS'https://ks.anjuke.com/community/view/1031874'
p35
aS'https://ks.anjuke.com/community/view/1031873'
p36
aS'https://ks.anjuke.com/community/view/1031872'
p37
aS'https://ks.anjuke.com/community/view/1031871'
p38
aS'https://ks.anjuke.com/community/view/1031870'
p39
aS'https://ks.anjuke.com/community/view/786568'
p40
aS'https://ks.anjuke.com/community/view/786569'
p41
aS'https://ks.anjuke.com/community/view/1049810'
p42
aS'https://ks.anjuke.com/community/view/545040'
p43
aS'https://ks.anjuke.com/community/view/786562'
p44
aS'https://ks.anjuke.com/community/view/786563'
p45
aS'https://ks.anjuke.com/community/view/786560'
p46
aS'https://ks.anjuke.com/community/view/538355'
p47
aS'https://ks.anjuke.com/community/view/786566'
p48
aS'https://ks.anjuke.com/community/view/786567'
p49
aS'https://ks.anjuke.com/community/view/786564'
p50
aS'https://ks.anjuke.com/community/view/786565'
p51
aS'https://ks.anjuke.com/community/view/406931'
p52
aS'https://ks.anjuke.com/community/view/1031922'
p53
aS'https://ks.anjuke.com/community/view/1031776'
p54
aS'https://ks.anjuke.com/community/view/406248'
p55
aS'https://ks.anjuke.com/community/view/406249'
p56
aS'https://ks.anjuke.com/community/view/406243'
p57
aS'https://ks.anjuke.com/community/view/406241'
p58
aS'https://ks.anjuke.com/community/view/406247'
p59
aS'https://ks.anjuke.com/community/view/406244'
p60
aS'https://ks.anjuke.com/community/view/1031955'
p61
aS'https://ks.anjuke.com/community/view/1031772'
p62
aS'https://ks.anjuke.com/community/view/325220'
p63
aS'https://ks.anjuke.com/community/view/797189'
p64
aS'https://ks.anjuke.com/community/view/1031957'
p65
aS'https://ks.anjuke.com/community/view/786698'
p66
aS'https://ks.anjuke.com/community/view/786699'
p67
aS'https://ks.anjuke.com/community/view/786694'
p68
aS'https://ks.anjuke.com/community/view/786695'
p69
aS'https://ks.anjuke.com/community/view/786696'
p70
aS'https://ks.anjuke.com/community/view/786697'
p71
aS'https://ks.anjuke.com/community/view/786690'
p72
aS'https://ks.anjuke.com/community/view/786691'
p73
aS'https://ks.anjuke.com/community/view/450980'
p74
aS'https://ks.anjuke.com/community/view/786693'
p75
aS'https://ks.anjuke.com/community/view/345849'
p76
aS'https://ks.anjuke.com/community/view/529340'
p77
aS'https://ks.anjuke.com/community/view/568802'
p78
aS'https://ks.anjuke.com/community/view/342545'
p79
aS'https://ks.anjuke.com/community/view/798522'
p80
aS'https://ks.anjuke.com/community/view/342948'
p81
aS'https://ks.anjuke.com/community/view/574846'
p82
aS'https://ks.anjuke.com/community/view/523703'
p83
aS'https://ks.anjuke.com/community/view/455593'
p84
aS'https://ks.anjuke.com/community/view/656472'
p85
aS'https://ks.anjuke.com/community/view/310088'
p86
aS'https://ks.anjuke.com/community/view/309968'
p87
aS'https://ks.anjuke.com/community/view/310086'
p88
aS'https://ks.anjuke.com/community/view/309966'
p89
aS'https://ks.anjuke.com/community/view/310084'
p90
aS'https://ks.anjuke.com/community/view/310085'
p91
aS'https://ks.anjuke.com/community/view/309963'
p92
aS'https://ks.anjuke.com/community/view/309962'
p93
aS'https://ks.anjuke.com/community/view/310080'
p94
aS'https://ks.anjuke.com/community/view/309960'
p95
aS'https://ks.anjuke.com/community/view/569626'
p96
aS'https://ks.anjuke.com/community/view/786678'
p97
aS'https://ks.anjuke.com/community/view/331752'
p98
aS'https://ks.anjuke.com/community/view/786679'
p99
aS'https://ks.anjuke.com/community/view/367738'
p100
aS'https://ks.anjuke.com/community/view/1041052'
p101
aS'https://ks.anjuke.com/community/view/1041053'
p102
aS'https://ks.anjuke.com/community/view/310261'
p103
aS'https://ks.anjuke.com/community/view/651055'
p104
aS'https://ks.anjuke.com/community/view/310267'
p105
aS'https://ks.anjuke.com/community/view/310264'
p106
aS'https://ks.anjuke.com/community/view/310265'
p107
aS'https://ks.anjuke.com/community/view/310268'
p108
aS'https://ks.anjuke.com/community/view/310269'
p109
aS'https://ks.anjuke.com/community/view/310464'
p110
aS'https://ks.anjuke.com/community/view/310465'
p111
aS'https://ks.anjuke.com/community/view/310467'
p112
aS'https://ks.anjuke.com/community/view/310460'
p113
aS'https://ks.anjuke.com/community/view/310461'
p114
aS'https://ks.anjuke.com/community/view/310462'
p115
aS'https://ks.anjuke.com/community/view/310463'
p116
aS'https://ks.anjuke.com/community/view/310468'
p117
aS'https://ks.anjuke.com/community/view/310469'
p118
aS'https://ks.anjuke.com/community/view/1084645'
p119
aS'https://ks.anjuke.com/community/view/1031482'
p120
aS'https://ks.anjuke.com/community/view/1072193'
p121
aS'https://ks.anjuke.com/community/view/1072192'
p122
aS'https://ks.anjuke.com/community/view/1072195'
p123
aS'https://ks.anjuke.com/community/view/331572'
p124
aS'https://ks.anjuke.com/community/view/1072197'
p125
aS'https://ks.anjuke.com/community/view/1072196'
p126
aS'https://ks.anjuke.com/community/view/1072199'
p127
aS'https://ks.anjuke.com/community/view/1072198'
p128
aS'https://ks.anjuke.com/community/view/582862'
p129
aS'https://ks.anjuke.com/community/view/795555'
p130
aS'https://ks.anjuke.com/community/view/800593'
p131
aS'https://ks.anjuke.com/community/view/309783'
p132
aS'https://ks.anjuke.com/community/view/309782'
p133
aS'https://ks.anjuke.com/community/view/309781'
p134
aS'https://ks.anjuke.com/community/view/309780'
p135
aS'https://ks.anjuke.com/community/view/309787'
p136
aS'https://ks.anjuke.com/community/view/309786'
p137
aS'https://ks.anjuke.com/community/view/309785'
p138
aS'https://ks.anjuke.com/community/view/309784'
p139
aS'https://ks.anjuke.com/community/view/309789'
p140
aS'https://ks.anjuke.com/community/view/309788'
p141
aS'https://ks.anjuke.com/community/view/1031468'
p142
aS'https://ks.anjuke.com/community/view/724937'
p143
aS'https://ks.anjuke.com/community/view/310106'
p144
aS'https://ks.anjuke.com/community/view/380119'
p145
aS'https://ks.anjuke.com/community/view/1031461'
p146
aS'https://ks.anjuke.com/community/view/1031463'
p147
aS'https://ks.anjuke.com/community/view/1031465'
p148
aS'https://ks.anjuke.com/community/view/1031466'
p149
aS'https://ks.anjuke.com/community/view/366462'
p150
aS'https://ks.anjuke.com/community/view/1035299'
p151
aS'https://ks.anjuke.com/community/view/1035298'
p152
aS'https://ks.anjuke.com/community/view/1035293'
p153
aS'https://ks.anjuke.com/community/view/1035292'
p154
aS'https://ks.anjuke.com/community/view/1035291'
p155
aS'https://ks.anjuke.com/community/view/1035290'
p156
aS'https://ks.anjuke.com/community/view/1035297'
p157
aS'https://ks.anjuke.com/community/view/590081'
p158
aS'https://ks.anjuke.com/community/view/1035295'
p159
aS'https://ks.anjuke.com/community/view/1035294'
p160
aS'https://ks.anjuke.com/community/view/1072179'
p161
aS'https://ks.anjuke.com/community/view/1072178'
p162
aS'https://ks.anjuke.com/community/view/482426'
p163
aS'https://ks.anjuke.com/community/view/1072176'
p164
aS'https://ks.anjuke.com/community/view/1072175'
p165
aS'https://ks.anjuke.com/community/view/1072174'
p166
aS'https://ks.anjuke.com/community/view/1072173'
p167
aS'https://ks.anjuke.com/community/view/1072172'
p168
aS'https://ks.anjuke.com/community/view/1072171'
p169
aS'https://ks.anjuke.com/community/view/1072170'
p170
aS'https://ks.anjuke.com/community/view/1035345'
p171
aS'https://ks.anjuke.com/community/view/1035344'
p172
aS'https://ks.anjuke.com/community/view/1035347'
p173
aS'https://ks.anjuke.com/community/view/1035346'
p174
aS'https://ks.anjuke.com/community/view/1035341'
p175
aS'https://ks.anjuke.com/community/view/372848'
p176
aS'https://ks.anjuke.com/community/view/1035343'
p177
aS'https://ks.anjuke.com/community/view/806292'
p178
aS'https://ks.anjuke.com/community/view/372849'
p179
aS'https://ks.anjuke.com/community/view/1035349'
p180
aS'https://ks.anjuke.com/community/view/1035348'
p181
aS'https://ks.anjuke.com/community/view/368845'
p182
aS'https://ks.anjuke.com/community/view/310063'
p183
aS'https://ks.anjuke.com/community/view/309945'
p184
aS'https://ks.anjuke.com/community/view/319465'
p185
aS'https://ks.anjuke.com/community/view/310065'
p186
aS'https://ks.anjuke.com/community/view/372845'
p187
aS'https://ks.anjuke.com/community/view/310066'
p188
aS'https://ks.anjuke.com/community/view/372842'
p189
aS'https://ks.anjuke.com/community/view/310067'
p190
aS'https://ks.anjuke.com/community/view/523880'
p191
aS'https://ks.anjuke.com/community/view/1031600'
p192
aS'https://ks.anjuke.com/community/view/309949'
p193
aS'https://ks.anjuke.com/community/view/1031603'
p194
aS'https://ks.anjuke.com/community/view/1031605'
p195
aS'https://ks.anjuke.com/community/view/1031607'
p196
aS'https://ks.anjuke.com/community/view/1031608'
p197
aS'https://ks.anjuke.com/community/view/1031609'
p198
aS'https://ks.anjuke.com/community/view/1035399'
p199
aS'https://ks.anjuke.com/community/view/309860'
p200
aS'https://ks.anjuke.com/community/view/478442'
p201
aS'https://ks.anjuke.com/community/view/326593'
p202
aS'https://ks.anjuke.com/community/view/450769'
p203
aS'https://ks.anjuke.com/community/view/787764'
p204
aS'https://ks.anjuke.com/community/view/413240'
p205
aS'https://ks.anjuke.com/community/view/729040'
p206
aS'https://ks.anjuke.com/community/view/1035405'
p207
aS'https://ks.anjuke.com/community/view/1035280'
p208
aS'https://ks.anjuke.com/community/view/404876'
p209
aS'https://ks.anjuke.com/community/view/461532'
p210
aS'https://ks.anjuke.com/community/view/404879'
p211
aS'https://ks.anjuke.com/community/view/570825'
p212
aS'https://ks.anjuke.com/community/view/316738'
p213
aS'https://ks.anjuke.com/community/view/1049694'
p214
aS'https://ks.anjuke.com/community/view/1049695'
p215
aS'https://ks.anjuke.com/community/view/1049696'
p216
aS'https://ks.anjuke.com/community/view/1049697'
p217
aS'https://ks.anjuke.com/community/view/1049690'
p218
aS'https://ks.anjuke.com/community/view/1049691'
p219
aS'https://ks.anjuke.com/community/view/1049692'
p220
aS'https://ks.anjuke.com/community/view/1049693'
p221
aS'https://ks.anjuke.com/community/view/654771'
p222
aS'https://ks.anjuke.com/community/view/594961'
p223
aS'https://ks.anjuke.com/community/view/594960'
p224
aS'https://ks.anjuke.com/community/view/1049698'
p225
aS'https://ks.anjuke.com/community/view/1049699'
p226
aS'https://ks.anjuke.com/community/view/1031848'
p227
aS'https://ks.anjuke.com/community/view/1031849'
p228
aS'https://ks.anjuke.com/community/view/628391'
p229
aS'https://ks.anjuke.com/community/view/1031842'
p230
aS'https://ks.anjuke.com/community/view/1031840'
p231
aS'https://ks.anjuke.com/community/view/1031841'
p232
aS'https://ks.anjuke.com/community/view/1031846'
p233
aS'https://ks.anjuke.com/community/view/1031847'
p234
aS'https://ks.anjuke.com/community/view/1031844'
p235
aS'https://ks.anjuke.com/community/view/1031845'
p236
aS'https://ks.anjuke.com/community/view/316118'
p237
aS'https://ks.anjuke.com/community/view/334681'
p238
aS'https://ks.anjuke.com/community/view/453199'
p239
aS'https://ks.anjuke.com/community/view/428530'
p240
aS'https://ks.anjuke.com/community/view/653382'
p241
aS'https://ks.anjuke.com/community/view/1052920'
p242
aS'https://ks.anjuke.com/community/view/1052921'
p243
aS'https://ks.anjuke.com/community/view/533583'
p244
aS'https://ks.anjuke.com/community/view/319115'
p245
aS'https://ks.anjuke.com/community/view/376130'
p246
aS'https://ks.anjuke.com/community/view/405900'
p247
aS'https://ks.anjuke.com/community/view/325110'
p248
aS'https://ks.anjuke.com/community/view/764356'
p249
aS'https://ks.anjuke.com/community/view/862012'
p250
aS'https://ks.anjuke.com/community/view/1033288'
p251
aS'https://ks.anjuke.com/community/view/1033289'
p252
aS'https://ks.anjuke.com/community/view/334668'
p253
aS'https://ks.anjuke.com/community/view/490440'
p254
aS'https://ks.anjuke.com/community/view/429111'
p255
aS'https://ks.anjuke.com/community/view/309757'
p256
aS'https://ks.anjuke.com/community/view/584841'
p257
aS'https://ks.anjuke.com/community/view/584840'
p258
aS'https://ks.anjuke.com/community/view/379847'
p259
aS'https://ks.anjuke.com/community/view/379846'
p260
aS'https://ks.anjuke.com/community/view/379845'
p261
aS'https://ks.anjuke.com/community/view/786561'
p262
aS'https://ks.anjuke.com/community/view/379848'
p263
aS'https://ks.anjuke.com/community/view/1049794'
p264
aS'https://ks.anjuke.com/community/view/623531'
p265
aS'https://ks.anjuke.com/community/view/786649'
p266
aS'https://ks.anjuke.com/community/view/786648'
p267
aS'https://ks.anjuke.com/community/view/612585'
p268
aS'https://ks.anjuke.com/community/view/786643'
p269
aS'https://ks.anjuke.com/community/view/786642'
p270
aS'https://ks.anjuke.com/community/view/786641'
p271
aS'https://ks.anjuke.com/community/view/786640'
p272
aS'https://ks.anjuke.com/community/view/786647'
p273
aS'https://ks.anjuke.com/community/view/786646'
p274
aS'https://ks.anjuke.com/community/view/786645'
p275
aS'https://ks.anjuke.com/community/view/786644'
p276
aS'https://ks.anjuke.com/community/view/310073'
p277
aS'https://ks.anjuke.com/community/view/412444'
p278
aS'https://ks.anjuke.com/community/view/310071'
p279
aS'https://ks.anjuke.com/community/view/310070'
p280
aS'https://ks.anjuke.com/community/view/309978'
p281
aS'https://ks.anjuke.com/community/view/310076'
p282
aS'https://ks.anjuke.com/community/view/310075'
p283
aS'https://ks.anjuke.com/community/view/339145'
p284
aS'https://ks.anjuke.com/community/view/309974'
p285
aS'https://ks.anjuke.com/community/view/309975'
p286
aS'https://ks.anjuke.com/community/view/309976'
p287
aS'https://ks.anjuke.com/community/view/309977'
p288
aS'https://ks.anjuke.com/community/view/309970'
p289
aS'https://ks.anjuke.com/community/view/309971'
p290
aS'https://ks.anjuke.com/community/view/309972'
p291
aS'https://ks.anjuke.com/community/view/309973'
p292
aS'https://ks.anjuke.com/community/view/354221'
p293
aS'https://ks.anjuke.com/community/view/581423'
p294
aS'https://ks.anjuke.com/community/view/310217'
p295
aS'https://ks.anjuke.com/community/view/310216'
p296
aS'https://ks.anjuke.com/community/view/423986'
p297
aS'https://ks.anjuke.com/community/view/310214'
p298
aS'https://ks.anjuke.com/community/view/310213'
p299
aS'https://ks.anjuke.com/community/view/310212'
p300
aS'https://ks.anjuke.com/community/view/310211'
p301
aS'https://ks.anjuke.com/community/view/310219'
p302
aS'https://ks.anjuke.com/community/view/310218'
p303
aS'https://ks.anjuke.com/community/view/1031942'
p304
aS'https://ks.anjuke.com/community/view/606866'
p305
aS'https://ks.anjuke.com/community/view/410755'
p306
aS'https://ks.anjuke.com/community/view/780362'
p307
aS'https://ks.anjuke.com/community/view/1031488'
p308
aS'https://ks.anjuke.com/community/view/780360'
p309
aS'https://ks.anjuke.com/community/view/310459'
p310
aS'https://ks.anjuke.com/community/view/310329'
p311
aS'https://ks.anjuke.com/community/view/310328'
p312
aS'https://ks.anjuke.com/community/view/554319'
p313
aS'https://ks.anjuke.com/community/view/310323'
p314
aS'https://ks.anjuke.com/community/view/310322'
p315
aS'https://ks.anjuke.com/community/view/310321'
p316
aS'https://ks.anjuke.com/community/view/310320'
p317
aS'https://ks.anjuke.com/community/view/310327'
p318
aS'https://ks.anjuke.com/community/view/310325'
p319
aS'https://ks.anjuke.com/community/view/310324'
p320
aS'https://ks.anjuke.com/community/view/310529'
p321
aS'https://ks.anjuke.com/community/view/310528'
p322
aS'https://ks.anjuke.com/community/view/568560'
p323
aS'https://ks.anjuke.com/community/view/310524'
p324
aS'https://ks.anjuke.com/community/view/310527'
p325
aS'https://ks.anjuke.com/community/view/310526'
p326
aS'https://ks.anjuke.com/community/view/310523'
p327
aS'https://ks.anjuke.com/community/view/310522'
p328
aS'https://ks.anjuke.com/community/view/372833'
p329
aS'https://ks.anjuke.com/community/view/606996'
p330
aS'https://ks.anjuke.com/community/view/527354'
p331
aS'https://ks.anjuke.com/community/view/372832'
p332
aS'https://ks.anjuke.com/community/view/611752'
p333
aS'https://ks.anjuke.com/community/view/309791'
p334
aS'https://ks.anjuke.com/community/view/309792'
p335
aS'https://ks.anjuke.com/community/view/309793'
p336
aS'https://ks.anjuke.com/community/view/309794'
p337
aS'https://ks.anjuke.com/community/view/309795'
p338
aS'https://ks.anjuke.com/community/view/309796'
p339
aS'https://ks.anjuke.com/community/view/309797'
p340
aS'https://ks.anjuke.com/community/view/309798'
p341
aS'https://ks.anjuke.com/community/view/309799'
p342
aS'https://ks.anjuke.com/community/view/372836'
p343
aS'https://ks.anjuke.com/community/view/1031479'
p344
aS'https://ks.anjuke.com/community/view/1035307'
p345
aS'https://ks.anjuke.com/community/view/1031473'
p346
aS'https://ks.anjuke.com/community/view/608302'
p347
aS'https://ks.anjuke.com/community/view/1031471'
p348
aS'https://ks.anjuke.com/community/view/1031485'
p349
aS'https://ks.anjuke.com/community/view/1031477'
p350
aS'https://ks.anjuke.com/community/view/1031474'
p351
aS'https://ks.anjuke.com/community/view/1031933'
p352
aS'https://ks.anjuke.com/community/view/373758'
p353
aS'https://ks.anjuke.com/community/view/1031931'
p354
aS'https://ks.anjuke.com/community/view/318411'
p355
aS'https://ks.anjuke.com/community/view/1035270'
p356
aS'https://ks.anjuke.com/community/view/1035330'
p357
aS'https://ks.anjuke.com/community/view/1035331'
p358
aS'https://ks.anjuke.com/community/view/1035332'
p359
aS'https://ks.anjuke.com/community/view/1035333'
p360
aS'https://ks.anjuke.com/community/view/1035334'
p361
aS'https://ks.anjuke.com/community/view/1035273'
p362
aS'https://ks.anjuke.com/community/view/1035336'
p363
aS'https://ks.anjuke.com/community/view/1035337'
p364
aS'https://ks.anjuke.com/community/view/1035338'
p365
aS'https://ks.anjuke.com/community/view/1035339'
p366
aS'https://ks.anjuke.com/community/view/1031935'
p367
aS'https://ks.anjuke.com/community/view/598474'
p368
aS'https://ks.anjuke.com/community/view/791641'
p369
aS'https://ks.anjuke.com/community/view/597899'
p370
aS'https://ks.anjuke.com/community/view/336035'
p371
aS'https://ks.anjuke.com/community/view/564477'
p372
aS'https://ks.anjuke.com/community/view/409338'
p373
aS'https://ks.anjuke.com/community/view/565471'
p374
aS'https://ks.anjuke.com/community/view/1031613'
p375
aS'https://ks.anjuke.com/community/view/1031612'
p376
aS'https://ks.anjuke.com/community/view/1031611'
p377
aS'https://ks.anjuke.com/community/view/1031610'
p378
aS'https://ks.anjuke.com/community/view/1031617'
p379
aS'https://ks.anjuke.com/community/view/1031616'
p380
aS'https://ks.anjuke.com/community/view/1051631'
p381
aS'https://ks.anjuke.com/community/view/1031619'
p382
aS'https://ks.anjuke.com/community/view/1031618'
p383
aS'https://ks.anjuke.com/community/view/1035248'
p384
aS'https://ks.anjuke.com/community/view/1035249'
p385
aS'https://ks.anjuke.com/community/view/656247'
p386
aS'https://ks.anjuke.com/community/view/1035244'
p387
aS'https://ks.anjuke.com/community/view/1035245'
p388
aS'https://ks.anjuke.com/community/view/1035246'
p389
aS'https://ks.anjuke.com/community/view/1035247'
p390
aS'https://ks.anjuke.com/community/view/1035240'
p391
aS'https://ks.anjuke.com/community/view/1035241'
p392
aS'https://ks.anjuke.com/community/view/1035242'
p393
aS'https://ks.anjuke.com/community/view/1035243'
p394
aS'https://ks.anjuke.com/community/view/1044314'
p395
aS'https://ks.anjuke.com/community/view/1044315'
p396
aS'https://ks.anjuke.com/community/view/448344'
p397
aS'https://ks.anjuke.com/community/view/783045'
p398
aS'https://ks.anjuke.com/community/view/1049687'
p399
aS'https://ks.anjuke.com/community/view/1049686'
p400
aS'https://ks.anjuke.com/community/view/717474'
p401
aS'https://ks.anjuke.com/community/view/1049684'
p402
aS'https://ks.anjuke.com/community/view/1049683'
p403
aS'https://ks.anjuke.com/community/view/1049682'
p404
aS'https://ks.anjuke.com/community/view/1049681'
p405
aS'https://ks.anjuke.com/community/view/1049680'
p406
aS'https://ks.anjuke.com/community/view/1049689'
p407
aS'https://ks.anjuke.com/community/view/1049688'
p408
aS'https://ks.anjuke.com/community/view/786692'
p409
aS'https://ks.anjuke.com/community/view/1031778'
p410
aS'https://ks.anjuke.com/community/view/635098'
p411
aS'https://ks.anjuke.com/community/view/543806'
p412
aS'https://ks.anjuke.com/community/view/580626'
p413
aS'https://ks.anjuke.com/community/view/472136'
p414
aS'https://ks.anjuke.com/community/view/1031855'
p415
aS'https://ks.anjuke.com/community/view/1031854'
p416
aS'https://ks.anjuke.com/community/view/1031857'
p417
aS'https://ks.anjuke.com/community/view/1031856'
p418
aS'https://ks.anjuke.com/community/view/1031851'
p419
aS'https://ks.anjuke.com/community/view/1031850'
p420
aS'https://ks.anjuke.com/community/view/1031853'
p421
aS'https://ks.anjuke.com/community/view/764161'
p422
aS'https://ks.anjuke.com/community/view/1031859'
p423
aS'https://ks.anjuke.com/community/view/1031858'
p424
aS'https://ks.anjuke.com/community/view/513640'
p425
aS'https://ks.anjuke.com/community/view/613531'
p426
aS'https://ks.anjuke.com/community/view/612790'
p427
aS'https://ks.anjuke.com/community/view/453949'
p428
aS'https://ks.anjuke.com/community/view/1078727'
p429
aS'https://ks.anjuke.com/community/view/310010'
p430
aS'https://ks.anjuke.com/community/view/652605'
p431
aS'https://ks.anjuke.com/community/view/764182'
p432
aS'https://ks.anjuke.com/community/view/786724'
p433
aS'https://ks.anjuke.com/community/view/786720'
p434
aS'https://ks.anjuke.com/community/view/786721'
p435
aS'https://ks.anjuke.com/community/view/786722'
p436
aS'https://ks.anjuke.com/community/view/786723'
p437
aS'https://ks.anjuke.com/community/view/790528'
p438
aS'https://ks.anjuke.com/community/view/310019'
p439
aS'https://ks.anjuke.com/community/view/804617'
p440
aS'https://ks.anjuke.com/community/view/727091'
p441
aS'https://ks.anjuke.com/community/view/453303'
p442
aS'https://ks.anjuke.com/community/view/597896'
p443
aS'https://ks.anjuke.com/community/view/379850'
p444
aS'https://ks.anjuke.com/community/view/379851'
p445
aS'https://ks.anjuke.com/community/view/394653'
p446
aS'https://ks.anjuke.com/community/view/651552'
p447
aS'https://ks.anjuke.com/community/view/1049789'
p448
aS'https://ks.anjuke.com/community/view/412057'
p449
aS'https://ks.anjuke.com/community/view/325774'
p450
aS'https://ks.anjuke.com/community/view/1031656'
p451
aS'https://ks.anjuke.com/community/view/803870'
p452
aS'https://ks.anjuke.com/community/view/316306'
p453
aS'https://ks.anjuke.com/community/view/786658'
p454
aS'https://ks.anjuke.com/community/view/786659'
p455
aS'https://ks.anjuke.com/community/view/786650'
p456
aS'https://ks.anjuke.com/community/view/786651'
p457
aS'https://ks.anjuke.com/community/view/786652'
p458
aS'https://ks.anjuke.com/community/view/786653'
p459
aS'https://ks.anjuke.com/community/view/786654'
p460
aS'https://ks.anjuke.com/community/view/786655'
p461
aS'https://ks.anjuke.com/community/view/786656'
p462
aS'https://ks.anjuke.com/community/view/786657'
p463
aS'https://ks.anjuke.com/community/view/309941'
p464
aS'https://ks.anjuke.com/community/view/310061'
p465
aS'https://ks.anjuke.com/community/view/310062'
p466
aS'https://ks.anjuke.com/community/view/309942'
p467
aS'https://ks.anjuke.com/community/view/310064'
p468
aS'https://ks.anjuke.com/community/view/309944'
p469
aS'https://ks.anjuke.com/community/view/309947'
p470
aS'https://ks.anjuke.com/community/view/309946'
p471
aS'https://ks.anjuke.com/community/view/310068'
p472
aS'https://ks.anjuke.com/community/view/310069'
p473
aS'https://ks.anjuke.com/community/view/521760'
p474
aS'https://ks.anjuke.com/community/view/309897'
p475
aS'https://ks.anjuke.com/community/view/309896'
p476
aS'https://ks.anjuke.com/community/view/309895'
p477
aS'https://ks.anjuke.com/community/view/309894'
p478
aS'https://ks.anjuke.com/community/view/309893'
p479
aS'https://ks.anjuke.com/community/view/309892'
p480
aS'https://ks.anjuke.com/community/view/309891'
p481
aS'https://ks.anjuke.com/community/view/309890'
p482
aS'https://ks.anjuke.com/community/view/309899'
p483
aS'https://ks.anjuke.com/community/view/309898'
p484
aS'https://ks.anjuke.com/community/view/309940'
p485
aS'https://ks.anjuke.com/community/view/607155'
p486
aS'https://ks.anjuke.com/community/view/310209'
p487
aS'https://ks.anjuke.com/community/view/309943'
p488
aS'https://ks.anjuke.com/community/view/804542'
p489
aS'https://ks.anjuke.com/community/view/619577'
p490
aS'https://ks.anjuke.com/community/view/310338'
p491
aS'https://ks.anjuke.com/community/view/310339'
p492
aS'https://ks.anjuke.com/community/view/310330'
p493
aS'https://ks.anjuke.com/community/view/310331'
p494
aS'https://ks.anjuke.com/community/view/310332'
p495
aS'https://ks.anjuke.com/community/view/310333'
p496
aS'https://ks.anjuke.com/community/view/310336'
p497
aS'https://ks.anjuke.com/community/view/310337'
p498
aS'https://ks.anjuke.com/community/view/310532'
p499
aS'https://ks.anjuke.com/community/view/310533'
p500
aS'https://ks.anjuke.com/community/view/310530'
p501
aS'https://ks.anjuke.com/community/view/310531'
p502
aS'https://ks.anjuke.com/community/view/310536'
p503
aS'https://ks.anjuke.com/community/view/310537'
p504
aS'https://ks.anjuke.com/community/view/310534'
p505
aS'https://ks.anjuke.com/community/view/310535'
p506
aS'https://ks.anjuke.com/community/view/310538'
p507
aS'https://ks.anjuke.com/community/view/310539'
p508
aS'https://ks.anjuke.com/community/view/794332'
p509
aS'https://ks.anjuke.com/community/view/495828'
p510
aS'https://ks.anjuke.com/community/view/788144'
p511
aS'https://ks.anjuke.com/community/view/788637'
p512
aS'https://ks.anjuke.com/community/view/317878'
p513
aS'https://ks.anjuke.com/community/view/351194'
p514
aS'https://ks.anjuke.com/community/view/508243'
p515
aS'https://ks.anjuke.com/community/view/596523'
p516
aS'https://ks.anjuke.com/community/view/318408'
p517
aS'https://ks.anjuke.com/community/view/654669'
p518
aS'https://ks.anjuke.com/community/view/1031590'
p519
aS'https://ks.anjuke.com/community/view/1072154'
p520
aS'https://ks.anjuke.com/community/view/597898'
p521
aS'https://ks.anjuke.com/community/view/1072156'
p522
aS'https://ks.anjuke.com/community/view/1072151'
p523
aS'https://ks.anjuke.com/community/view/1072150'
p524
aS'https://ks.anjuke.com/community/view/1072153'
p525
aS'https://ks.anjuke.com/community/view/1072152'
p526
aS'https://ks.anjuke.com/community/view/1031598'
p527
aS'https://ks.anjuke.com/community/view/597893'
p528
aS'https://ks.anjuke.com/community/view/1072159'
p529
aS'https://ks.anjuke.com/community/view/597897'
p530
aS'https://ks.anjuke.com/community/view/597894'
p531
aS'https://ks.anjuke.com/community/view/322163'
p532
aS'https://ks.anjuke.com/community/view/1035323'
p533
aS'https://ks.anjuke.com/community/view/1035322'
p534
aS'https://ks.anjuke.com/community/view/1035321'
p535
aS'https://ks.anjuke.com/community/view/1035320'
p536
aS'https://ks.anjuke.com/community/view/1035327'
p537
aS'https://ks.anjuke.com/community/view/1035326'
p538
aS'https://ks.anjuke.com/community/view/1035325'
p539
aS'https://ks.anjuke.com/community/view/1035324'
p540
aS'https://ks.anjuke.com/community/view/1035329'
p541
aS'https://ks.anjuke.com/community/view/1035328'
p542
aS'https://ks.anjuke.com/community/view/1031628'
p543
aS'https://ks.anjuke.com/community/view/1031629'
p544
aS'https://ks.anjuke.com/community/view/1031626'
p545
aS'https://ks.anjuke.com/community/view/1031627'
p546
aS'https://ks.anjuke.com/community/view/1031624'
p547
aS'https://ks.anjuke.com/community/view/1031625'
p548
aS'https://ks.anjuke.com/community/view/1031622'
p549
aS'https://ks.anjuke.com/community/view/1031623'
p550
aS'https://ks.anjuke.com/community/view/1031620'
p551
aS'https://ks.anjuke.com/community/view/1031621'
p552
aS'https://ks.anjuke.com/community/view/1031914'
p553
aS'https://ks.anjuke.com/community/view/321461'
p554
aS'https://ks.anjuke.com/community/view/1031916'
p555
aS'https://ks.anjuke.com/community/view/1031917'
p556
aS'https://ks.anjuke.com/community/view/404521'
p557
aS'https://ks.anjuke.com/community/view/1031911'
p558
aS'https://ks.anjuke.com/community/view/1035259'
p559
aS'https://ks.anjuke.com/community/view/1035258'
p560
aS'https://ks.anjuke.com/community/view/1035257'
p561
aS'https://ks.anjuke.com/community/view/1035256'
p562
aS'https://ks.anjuke.com/community/view/1035255'
p563
aS'https://ks.anjuke.com/community/view/1035254'
p564
aS'https://ks.anjuke.com/community/view/1035253'
p565
aS'https://ks.anjuke.com/community/view/1035252'
p566
aS'https://ks.anjuke.com/community/view/1035251'
p567
aS'https://ks.anjuke.com/community/view/1035250'
p568
aS'https://ks.anjuke.com/community/view/791875'
p569
aS'https://ks.anjuke.com/community/view/605162'
p570
aS'https://ks.anjuke.com/community/view/572889'
p571
aS'https://ks.anjuke.com/community/view/580746'
p572
aS'https://ks.anjuke.com/community/view/580037'
p573
aS'https://ks.anjuke.com/community/view/1004914'
p574
aS'https://ks.anjuke.com/community/view/1004915'
p575
aS'https://ks.anjuke.com/community/view/1004911'
p576
aS'https://ks.anjuke.com/community/view/1004912'
p577
aS'https://ks.anjuke.com/community/view/1004913'
p578
aS'https://ks.anjuke.com/community/view/793258'
p579
aS'https://ks.anjuke.com/community/view/479647'
p580
aS'https://ks.anjuke.com/community/view/309745'
p581
aS'https://ks.anjuke.com/community/view/792303'
p582
aS'https://ks.anjuke.com/community/view/500831'
p583
aS'https://ks.anjuke.com/community/view/1031822'
p584
aS'https://ks.anjuke.com/community/view/1031824'
p585
aS'https://ks.anjuke.com/community/view/1031825'
p586
aS'https://ks.anjuke.com/community/view/1031826'
p587
aS'https://ks.anjuke.com/community/view/792304'
p588
aS'https://ks.anjuke.com/community/view/1031828'
p589
aS'https://ks.anjuke.com/community/view/1031829'
p590
aS'https://ks.anjuke.com/community/view/309969'
p591
aS'https://ks.anjuke.com/community/view/556582'
p592
aS'https://ks.anjuke.com/community/view/989544'
p593
aS'https://ks.anjuke.com/community/view/309967'
p594
aS'https://ks.anjuke.com/community/view/583104'
p595
aS'https://ks.anjuke.com/community/view/333327'
p596
aS'https://ks.anjuke.com/community/view/379512'
p597
aS'https://ks.anjuke.com/community/view/309965'
p598
aS'https://ks.anjuke.com/community/view/1072155'
p599
aS'https://ks.anjuke.com/community/view/1031591'
p600
aS'https://ks.anjuke.com/community/view/761925'
p601
aS'https://ks.anjuke.com/community/view/1031592'
p602
aS'https://ks.anjuke.com/community/view/310083'
p603
aS'https://ks.anjuke.com/community/view/1060408'
p604
aS'https://ks.anjuke.com/community/view/1031593'
p605
aS'https://ks.anjuke.com/community/view/309961'
p606
aS'https://ks.anjuke.com/community/view/616392'
p607
aS'https://ks.anjuke.com/community/view/379197'
p608
aS'https://ks.anjuke.com/community/view/310081'
p609
aS'https://ks.anjuke.com/community/view/1060404'
p610
aS'https://ks.anjuke.com/community/view/1060405'
p611
aS'https://ks.anjuke.com/community/view/572086'
p612
aS'https://ks.anjuke.com/community/view/1060407'
p613
aS'https://ks.anjuke.com/community/view/614083'
p614
aS'https://ks.anjuke.com/community/view/605549'
p615
aS'https://ks.anjuke.com/community/view/437819'
p616
aS'https://ks.anjuke.com/community/view/1035420'
p617
aS'https://ks.anjuke.com/community/view/1031599'
p618
aS'https://ks.anjuke.com/community/view/778909'
p619
aS'https://ks.anjuke.com/community/view/1072158'
p620
aS'https://ks.anjuke.com/community/view/782720'
p621
aS'https://ks.anjuke.com/community/view/394649'
p622
aS'https://ks.anjuke.com/community/view/786719'
p623
aS'https://ks.anjuke.com/community/view/786718'
p624
aS'https://ks.anjuke.com/community/view/310060'
p625
aS'https://ks.anjuke.com/community/view/612903'
p626
aS'https://ks.anjuke.com/community/view/786711'
p627
aS'https://ks.anjuke.com/community/view/786710'
p628
aS'https://ks.anjuke.com/community/view/786713'
p629
aS'https://ks.anjuke.com/community/view/786712'
p630
aS'https://ks.anjuke.com/community/view/786715'
p631
aS'https://ks.anjuke.com/community/view/786714'
p632
aS'https://ks.anjuke.com/community/view/786717'
p633
aS'https://ks.anjuke.com/community/view/786716'
p634
aS'https://ks.anjuke.com/community/view/786669'
p635
aS'https://ks.anjuke.com/community/view/786668'
p636
aS'https://ks.anjuke.com/community/view/786665'
p637
aS'https://ks.anjuke.com/community/view/786664'
p638
aS'https://ks.anjuke.com/community/view/429009'
p639
aS'https://ks.anjuke.com/community/view/786666'
p640
aS'https://ks.anjuke.com/community/view/786661'
p641
aS'https://ks.anjuke.com/community/view/349529'
p642
aS'https://ks.anjuke.com/community/view/786663'
p643
aS'https://ks.anjuke.com/community/view/786662'
p644
aS'https://ks.anjuke.com/community/view/309956'
p645
aS'https://ks.anjuke.com/community/view/309957'
p646
aS'https://ks.anjuke.com/community/view/309954'
p647
aS'https://ks.anjuke.com/community/view/310056'
p648
aS'https://ks.anjuke.com/community/view/309952'
p649
aS'https://ks.anjuke.com/community/view/309953'
p650
aS'https://ks.anjuke.com/community/view/310053'
p651
aS'https://ks.anjuke.com/community/view/309951'
p652
aS'https://ks.anjuke.com/community/view/310059'
p653
aS'https://ks.anjuke.com/community/view/310058'
p654
aS'https://ks.anjuke.com/community/view/309958'
p655
aS'https://ks.anjuke.com/community/view/309959'
p656
aS'https://ks.anjuke.com/community/view/309884'
p657
aS'https://ks.anjuke.com/community/view/309885'
p658
aS'https://ks.anjuke.com/community/view/309886'
p659
aS'https://ks.anjuke.com/community/view/309887'
p660
aS'https://ks.anjuke.com/community/view/309880'
p661
aS'https://ks.anjuke.com/community/view/309881'
p662
aS'https://ks.anjuke.com/community/view/309882'
p663
aS'https://ks.anjuke.com/community/view/309883'
p664
aS'https://ks.anjuke.com/community/view/309888'
p665
aS'https://ks.anjuke.com/community/view/309889'
p666
aS'https://ks.anjuke.com/community/view/310239'
p667
aS'https://ks.anjuke.com/community/view/310238'
p668
aS'https://ks.anjuke.com/community/view/310230'
p669
aS'https://ks.anjuke.com/community/view/310233'
p670
aS'https://ks.anjuke.com/community/view/310232'
p671
aS'https://ks.anjuke.com/community/view/310235'
p672
aS'https://ks.anjuke.com/community/view/310234'
p673
aS'https://ks.anjuke.com/community/view/608418'
p674
aS'https://ks.anjuke.com/community/view/608780'
p675
aS'https://ks.anjuke.com/community/view/520558'
p676
aS'https://ks.anjuke.com/community/view/781389'
p677
aS'https://ks.anjuke.com/community/view/1058458'
p678
aS'https://ks.anjuke.com/community/view/1058459'
p679
aS'https://ks.anjuke.com/community/view/1058454'
p680
aS'https://ks.anjuke.com/community/view/1058455'
p681
aS'https://ks.anjuke.com/community/view/1058456'
p682
aS'https://ks.anjuke.com/community/view/1058457'
p683
aS'https://ks.anjuke.com/community/view/1058450'
p684
aS'https://ks.anjuke.com/community/view/1058451'
p685
aS'https://ks.anjuke.com/community/view/1058452'
p686
aS'https://ks.anjuke.com/community/view/1058453'
p687
aS'https://ks.anjuke.com/community/view/657939'
p688
aS'https://ks.anjuke.com/community/view/366679'
p689
aS'https://ks.anjuke.com/community/view/309738'
p690
aS'https://ks.anjuke.com/community/view/544747'
p691
aS'https://ks.anjuke.com/community/view/608524'
p692
aS'https://ks.anjuke.com/community/view/310309'
p693
aS'https://ks.anjuke.com/community/view/310308'
p694
aS'https://ks.anjuke.com/community/view/310305'
p695
aS'https://ks.anjuke.com/community/view/582899'
p696
aS'https://ks.anjuke.com/community/view/310307'
p697
aS'https://ks.anjuke.com/community/view/310306'
p698
aS'https://ks.anjuke.com/community/view/310303'
p699
aS'https://ks.anjuke.com/community/view/310302'
p700
aS'https://ks.anjuke.com/community/view/978222'
p701
aS'https://ks.anjuke.com/community/view/461039'
p702
aS'https://ks.anjuke.com/community/view/310262'
p703
aS'https://ks.anjuke.com/community/view/451774'
p704
aS'https://ks.anjuke.com/community/view/310263'
p705
aS'https://ks.anjuke.com/community/view/871290'
p706
aS'https://ks.anjuke.com/community/view/1031453'
p707
aS'https://ks.anjuke.com/community/view/1031455'
p708
aS'https://ks.anjuke.com/community/view/1031457'
p709
aS'https://ks.anjuke.com/community/view/1031459'
p710
aS'https://ks.anjuke.com/community/view/310266'
p711
aS'https://ks.anjuke.com/community/view/586401'
p712
aS'https://ks.anjuke.com/community/view/595712'
p713
aS'https://ks.anjuke.com/community/view/597578'
p714
aS'https://ks.anjuke.com/community/view/617615'
p715
aS'https://ks.anjuke.com/community/view/309979'
p716
aS'https://ks.anjuke.com/community/view/535975'
p717
aS'https://ks.anjuke.com/community/view/1031744'
p718
aS'https://ks.anjuke.com/community/view/481701'
p719
aS'https://ks.anjuke.com/community/view/319452'
p720
aS'https://ks.anjuke.com/community/view/363778'
p721
aS'https://ks.anjuke.com/community/view/609120'
p722
aS'https://ks.anjuke.com/community/view/575957'
p723
aS'https://ks.anjuke.com/community/view/1031631'
p724
aS'https://ks.anjuke.com/community/view/1031633'
p725
aS'https://ks.anjuke.com/community/view/572942'
p726
aS'https://ks.anjuke.com/community/view/1031636'
p727
aS'https://ks.anjuke.com/community/view/413852'
p728
aS'https://ks.anjuke.com/community/view/1035318'
p729
aS'https://ks.anjuke.com/community/view/1035319'
p730
aS'https://ks.anjuke.com/community/view/1035316'
p731
aS'https://ks.anjuke.com/community/view/1035317'
p732
aS'https://ks.anjuke.com/community/view/1035314'
p733
aS'https://ks.anjuke.com/community/view/1035315'
p734
aS'https://ks.anjuke.com/community/view/1035312'
p735
aS'https://ks.anjuke.com/community/view/1035313'
p736
aS'https://ks.anjuke.com/community/view/1035310'
p737
aS'https://ks.anjuke.com/community/view/1035311'
p738
aS'https://ks.anjuke.com/community/view/1031906'
p739
aS'https://ks.anjuke.com/community/view/1035268'
p740
aS'https://ks.anjuke.com/community/view/1035269'
p741
aS'https://ks.anjuke.com/community/view/380272'
p742
aS'https://ks.anjuke.com/community/view/1031901'
p743
aS'https://ks.anjuke.com/community/view/1035262'
p744
aS'https://ks.anjuke.com/community/view/1035263'
p745
aS'https://ks.anjuke.com/community/view/1035260'
p746
aS'https://ks.anjuke.com/community/view/1035261'
p747
aS'https://ks.anjuke.com/community/view/1035266'
p748
aS'https://ks.anjuke.com/community/view/1035267'
p749
aS'https://ks.anjuke.com/community/view/1035264'
p750
aS'https://ks.anjuke.com/community/view/1031908'
p751
aS'https://ks.anjuke.com/community/view/791200'
p752
aS'https://ks.anjuke.com/community/view/594952'
p753
aS'https://ks.anjuke.com/community/view/594950'
p754
aS'https://ks.anjuke.com/community/view/594956'
p755
aS'https://ks.anjuke.com/community/view/585696'
p756
aS'https://ks.anjuke.com/community/view/594954'
p757
aS'https://ks.anjuke.com/community/view/1031915'
p758
aS'https://ks.anjuke.com/community/view/791683'
p759
aS'https://ks.anjuke.com/community/view/791681'
p760
aS'https://ks.anjuke.com/community/view/594959'
p761
aS'https://ks.anjuke.com/community/view/791686'
p762
aS'https://ks.anjuke.com/community/view/375190'
p763
aS'https://ks.anjuke.com/community/view/1004909'
p764
aS'https://ks.anjuke.com/community/view/1031910'
p765
aS'https://ks.anjuke.com/community/view/571053'
p766
aS'https://ks.anjuke.com/community/view/413639'
p767
aS'https://ks.anjuke.com/community/view/1031833'
p768
aS'https://ks.anjuke.com/community/view/1031832'
p769
aS'https://ks.anjuke.com/community/view/1031831'
p770
aS'https://ks.anjuke.com/community/view/1031837'
p771
aS'https://ks.anjuke.com/community/view/1031836'
p772
aS'https://ks.anjuke.com/community/view/1031835'
p773
aS'https://ks.anjuke.com/community/view/1031839'
p774
aS'https://ks.anjuke.com/community/view/1032570'
p775
aS'https://ks.anjuke.com/community/view/1044204'
p776
aS'https://ks.anjuke.com/community/view/512627'
p777
aS'https://ks.anjuke.com/community/view/652287'
p778
aS'https://ks.anjuke.com/community/view/1031918'
p779
aS'https://ks.anjuke.com/community/view/409043'
p780
aS'https://ks.anjuke.com/community/view/1031919'
p781
aS'https://ks.anjuke.com/community/view/1043150'
p782
aS'https://ks.anjuke.com/community/view/469884'
p783
aS'https://ks.anjuke.com/community/view/309730'
p784
aS'https://ks.anjuke.com/community/view/448439'
p785
aS'https://ks.anjuke.com/community/view/1032690'
p786
aS'https://ks.anjuke.com/community/view/405952'
p787
aS'https://ks.anjuke.com/community/view/517761'
p788
aS'https://ks.anjuke.com/community/view/793357'
p789
aS'https://ks.anjuke.com/community/view/584837'
p790
aS'https://ks.anjuke.com/community/view/584831'
p791
aS'https://ks.anjuke.com/community/view/531099'
p792
aS'https://ks.anjuke.com/community/view/584839'
p793
aS'https://ks.anjuke.com/community/view/786708'
p794
aS'https://ks.anjuke.com/community/view/786709'
p795
aS'https://ks.anjuke.com/community/view/786706'
p796
aS'https://ks.anjuke.com/community/view/786707'
p797
aS'https://ks.anjuke.com/community/view/786256'
p798
aS'https://ks.anjuke.com/community/view/316326'
p799
aS'https://ks.anjuke.com/community/view/786702'
p800
aS'https://ks.anjuke.com/community/view/786703'
p801
aS'https://ks.anjuke.com/community/view/786700'
p802
aS'https://ks.anjuke.com/community/view/786701'
p803
aS'https://ks.anjuke.com/community/view/786672'
p804
aS'https://ks.anjuke.com/community/view/786673'
p805
aS'https://ks.anjuke.com/community/view/786670'
p806
aS'https://ks.anjuke.com/community/view/786671'
p807
aS'https://ks.anjuke.com/community/view/786676'
p808
aS'https://ks.anjuke.com/community/view/786677'
p809
aS'https://ks.anjuke.com/community/view/786674'
p810
aS'https://ks.anjuke.com/community/view/786675'
p811
aS'https://ks.anjuke.com/community/view/310042'
p812
aS'https://ks.anjuke.com/community/view/310043'
p813
aS'https://ks.anjuke.com/community/view/310040'
p814
aS'https://ks.anjuke.com/community/view/310041'
p815
aS'https://ks.anjuke.com/community/view/310046'
p816
aS'https://ks.anjuke.com/community/view/310047'
p817
aS'https://ks.anjuke.com/community/view/310044'
p818
aS'https://ks.anjuke.com/community/view/310045'
p819
aS'https://ks.anjuke.com/community/view/1072194'
p820
aS'https://ks.anjuke.com/community/view/788548'
p821
aS'https://ks.anjuke.com/community/view/803724'
p822
aS'https://ks.anjuke.com/community/view/367208'
p823
aS'https://ks.anjuke.com/community/view/469538'
p824
aS'https://ks.anjuke.com/community/view/786601'
p825
aS'https://ks.anjuke.com/community/view/310228'
p826
aS'https://ks.anjuke.com/community/view/310229'
p827
aS'https://ks.anjuke.com/community/view/310226'
p828
aS'https://ks.anjuke.com/community/view/310227'
p829
aS'https://ks.anjuke.com/community/view/310224'
p830
aS'https://ks.anjuke.com/community/view/786600'
p831
aS'https://ks.anjuke.com/community/view/568713'
p832
aS'https://ks.anjuke.com/community/view/310223'
p833
aS'https://ks.anjuke.com/community/view/310220'
p834
aS'https://ks.anjuke.com/community/view/310221'
p835
aS'https://ks.anjuke.com/community/view/728976'
p836
aS'https://ks.anjuke.com/community/view/728978'
p837
aS'https://ks.anjuke.com/community/view/538501'
p838
aS'https://ks.anjuke.com/community/view/569710'
p839
aS'https://ks.anjuke.com/community/view/1058449'
p840
aS'https://ks.anjuke.com/community/view/1058448'
p841
aS'https://ks.anjuke.com/community/view/1058447'
p842
aS'https://ks.anjuke.com/community/view/1058446'
p843
aS'https://ks.anjuke.com/community/view/1058445'
p844
aS'https://ks.anjuke.com/community/view/310032'
p845
aS'https://ks.anjuke.com/community/view/309989'
p846
aS'https://ks.anjuke.com/community/view/309988'
p847
aS'https://ks.anjuke.com/community/view/309985'
p848
aS'https://ks.anjuke.com/community/view/309984'
p849
aS'https://ks.anjuke.com/community/view/309987'
p850
aS'https://ks.anjuke.com/community/view/309986'
p851
aS'https://ks.anjuke.com/community/view/309981'
p852
aS'https://ks.anjuke.com/community/view/309980'
p853
aS'https://ks.anjuke.com/community/view/309983'
p854
aS'https://ks.anjuke.com/community/view/309982'
p855
aS'https://ks.anjuke.com/community/view/371863'
p856
aS'https://ks.anjuke.com/community/view/310312'
p857
aS'https://ks.anjuke.com/community/view/310313'
p858
aS'https://ks.anjuke.com/community/view/310310'
p859
aS'https://ks.anjuke.com/community/view/310311'
p860
aS'https://ks.anjuke.com/community/view/310316'
p861
aS'https://ks.anjuke.com/community/view/310317'
p862
aS'https://ks.anjuke.com/community/view/310314'
p863
aS'https://ks.anjuke.com/community/view/310315'
p864
aS'https://ks.anjuke.com/community/view/310318'
p865
aS'https://ks.anjuke.com/community/view/310319'
p866
aS'https://ks.anjuke.com/community/view/561129'
p867
aS'https://ks.anjuke.com/community/view/345759'
p868
aS'https://ks.anjuke.com/community/view/572712'
p869
aS'https://ks.anjuke.com/community/view/503676'
p870
aS'https://ks.anjuke.com/community/view/626683'
p871
aS'https://ks.anjuke.com/community/view/788059'
p872
aS'https://ks.anjuke.com/community/view/408305'
p873
aS'https://ks.anjuke.com/community/view/478229'
p874
aS'https://ks.anjuke.com/community/view/478228'
p875
aS'https://ks.anjuke.com/community/view/494790'
p876
aS'https://ks.anjuke.com/community/view/650361'
p877
aS'https://ks.anjuke.com/community/view/466404'
p878
aS'https://ks.anjuke.com/community/view/309906'
p879
aS'https://ks.anjuke.com/community/view/374038'
p880
aS'https://ks.anjuke.com/community/view/1031820'
p881
aS'https://ks.anjuke.com/community/view/650296'
p882
aS'https://ks.anjuke.com/community/view/318865'
p883
aS'https://ks.anjuke.com/community/view/791678'
p884
aS'https://ks.anjuke.com/community/view/423485'
p885
aS'https://ks.anjuke.com/community/view/605334'
p886
aS'https://ks.anjuke.com/community/view/764521'
p887
aS'https://ks.anjuke.com/community/view/990680'
p888
aS'https://ks.anjuke.com/community/view/309908'
p889
aS'https://ks.anjuke.com/community/view/1035309'
p890
aS'https://ks.anjuke.com/community/view/1035308'
p891
aS'https://ks.anjuke.com/community/view/372839'
p892
aS'https://ks.anjuke.com/community/view/1035301'
p893
aS'https://ks.anjuke.com/community/view/1035300'
p894
aS'https://ks.anjuke.com/community/view/1035303'
p895
aS'https://ks.anjuke.com/community/view/1031481'
p896
aS'https://ks.anjuke.com/community/view/1031486'
p897
aS'https://ks.anjuke.com/community/view/1035304'
p898
aS'https://ks.anjuke.com/community/view/503525'
p899
aS'https://ks.anjuke.com/community/view/1035306'
p900
aS'https://ks.anjuke.com/community/view/1035275'
p901
aS'https://ks.anjuke.com/community/view/1035274'
p902
aS'https://ks.anjuke.com/community/view/1035277'
p903
aS'https://ks.anjuke.com/community/view/1035276'
p904
aS'https://ks.anjuke.com/community/view/1035271'
p905
aS'https://ks.anjuke.com/community/view/1031937'
p906
aS'https://ks.anjuke.com/community/view/565802'
p907
aS'https://ks.anjuke.com/community/view/1035272'
p908
aS'https://ks.anjuke.com/community/view/1031938'
p909
aS'https://ks.anjuke.com/community/view/1035279'
p910
aS'https://ks.anjuke.com/community/view/1035278'
p911
aS'https://ks.anjuke.com/community/view/658600'
p912
aS'https://ks.anjuke.com/community/view/799036'
p913
aS'https://ks.anjuke.com/community/view/1049017'
p914
aS'https://ks.anjuke.com/community/view/543744'
p915
aS'https://ks.anjuke.com/community/view/1049788'
p916
aS'https://ks.anjuke.com/community/view/575503'
p917
aS'https://ks.anjuke.com/community/view/1049786'
p918
aS'https://ks.anjuke.com/community/view/1049787'
p919
aS'https://ks.anjuke.com/community/view/1049784'
p920
aS'https://ks.anjuke.com/community/view/1049785'
p921
aS'https://ks.anjuke.com/community/view/1049782'
p922
aS'https://ks.anjuke.com/community/view/1049783'
p923
aS'https://ks.anjuke.com/community/view/1049780'
p924
aS'https://ks.anjuke.com/community/view/1049781'
p925
aS'https://ks.anjuke.com/community/view/584186'
p926
aS'https://ks.anjuke.com/community/view/1031808'
p927
aS'https://ks.anjuke.com/community/view/654637'
p928
aS'https://ks.anjuke.com/community/view/1031806'
p929
aS'https://ks.anjuke.com/community/view/1031804'
p930
aS'https://ks.anjuke.com/community/view/1031802'
p931
aS'https://ks.anjuke.com/community/view/778144'
p932
aS'https://ks.anjuke.com/community/view/657349'
p933
aS'https://ks.anjuke.com/community/view/380117'
p934
aS'https://ks.anjuke.com/community/view/652455'
p935
aS'https://ks.anjuke.com/community/view/316793'
p936
aS'https://ks.anjuke.com/community/view/497543'
p937
aS'https://ks.anjuke.com/community/view/487254'
p938
aS'https://ks.anjuke.com/community/view/401681'
p939
aS'https://ks.anjuke.com/community/view/596629'
p940
aS'https://ks.anjuke.com/community/view/1032687'
p941
aS'https://ks.anjuke.com/community/view/1032686'
p942
aS'https://ks.anjuke.com/community/view/607012'
p943
aS'https://ks.anjuke.com/community/view/357259'
p944
aS'https://ks.anjuke.com/community/view/462878'
p945
aS'https://ks.anjuke.com/community/view/606781'
p946
aS'https://ks.anjuke.com/community/view/396335'
p947
aS'https://ks.anjuke.com/community/view/349056'
p948
aS'https://ks.anjuke.com/community/view/576524'
p949
aS'https://ks.anjuke.com/community/view/1035296'
p950
aS'https://ks.anjuke.com/community/view/417723'
p951
aS'https://ks.anjuke.com/community/view/764065'
p952
aS'https://ks.anjuke.com/community/view/786607'
p953
aS'https://ks.anjuke.com/community/view/786606'
p954
aS'https://ks.anjuke.com/community/view/786605'
p955
aS'https://ks.anjuke.com/community/view/786604'
p956
aS'https://ks.anjuke.com/community/view/786603'
p957
aS'https://ks.anjuke.com/community/view/786602'
p958
aS'https://ks.anjuke.com/community/view/310039'
p959
aS'https://ks.anjuke.com/community/view/310038'
p960
aS'https://ks.anjuke.com/community/view/310037'
p961
aS'https://ks.anjuke.com/community/view/310036'
p962
aS'https://ks.anjuke.com/community/view/310035'
p963
aS'https://ks.anjuke.com/community/view/310033'
p964
aS'https://ks.anjuke.com/community/view/578807'
p965
aS'https://ks.anjuke.com/community/view/310031'
p966
aS'https://ks.anjuke.com/community/view/310030'
p967
aS'https://ks.anjuke.com/community/view/798263'
p968
aS'https://ks.anjuke.com/community/view/579990'
p969
aS'https://ks.anjuke.com/community/view/1049711'
p970
aS'https://ks.anjuke.com/community/view/1072177'
p971
aS'https://ks.anjuke.com/community/view/309932'
p972
aS'https://ks.anjuke.com/community/view/372808'
p973
aS'https://ks.anjuke.com/community/view/1049710'
p974
aS'https://ks.anjuke.com/community/view/490226'
p975
aS'https://ks.anjuke.com/community/view/554529'
p976
aS'https://ks.anjuke.com/community/view/549057'
p977
aS'https://ks.anjuke.com/community/view/309992'
p978
aS'https://ks.anjuke.com/community/view/309993'
p979
aS'https://ks.anjuke.com/community/view/309990'
p980
aS'https://ks.anjuke.com/community/view/309991'
p981
aS'https://ks.anjuke.com/community/view/309996'
p982
aS'https://ks.anjuke.com/community/view/309997'
p983
aS'https://ks.anjuke.com/community/view/309994'
p984
aS'https://ks.anjuke.com/community/view/309995'
p985
aS'https://ks.anjuke.com/community/view/309998'
p986
aS'https://ks.anjuke.com/community/view/309999'
p987
aS'https://ks.anjuke.com/community/view/1060402'
p988
aS'https://ks.anjuke.com/community/view/1035340'
p989
aS'https://ks.anjuke.com/community/view/860766'
p990
aS'https://ks.anjuke.com/community/view/789221'
p991
aS'https://ks.anjuke.com/community/view/615096'
p992
aS'https://ks.anjuke.com/community/view/597177'
p993
aS'https://ks.anjuke.com/community/view/310367'
p994
aS'https://ks.anjuke.com/community/view/310494'
p995
aS'https://ks.anjuke.com/community/view/310365'
p996
aS'https://ks.anjuke.com/community/view/656581'
p997
aS'https://ks.anjuke.com/community/view/310491'
p998
aS'https://ks.anjuke.com/community/view/310490'
p999
aS'https://ks.anjuke.com/community/view/310493'
p1000
aS'https://ks.anjuke.com/community/view/310492'
p1001
aS'https://ks.anjuke.com/community/view/1067499'
p1002
aS'https://ks.anjuke.com/community/view/310369'
p1003
aS'https://ks.anjuke.com/community/view/310368'
p1004
aS'https://ks.anjuke.com/community/view/320593'
p1005
aS'https://ks.anjuke.com/community/view/618523'
p1006
aS'https://ks.anjuke.com/community/view/331324'
p1007
aS'https://ks.anjuke.com/community/view/581336'
p1008
aS'https://ks.anjuke.com/community/view/541018'
p1009
aS'https://ks.anjuke.com/community/view/317319'
p1010
aS'https://ks.anjuke.com/community/view/800576'
p1011
aS'https://ks.anjuke.com/community/view/552700'
p1012
aS'https://ks.anjuke.com/community/view/793977'
p1013
aS'https://ks.anjuke.com/community/view/793979'
p1014
aS'https://ks.anjuke.com/community/view/793978'
p1015
aS'https://ks.anjuke.com/community/view/794106'
p1016
aS'https://ks.anjuke.com/community/view/627966'
p1017
aS'https://ks.anjuke.com/community/view/419231'
p1018
aS'https://ks.anjuke.com/community/view/653938'
p1019
aS'https://ks.anjuke.com/community/view/408007'
p1020
aS'https://ks.anjuke.com/community/view/791199'
p1021
aS'https://ks.anjuke.com/community/view/310089'
p1022
aS'https://ks.anjuke.com/community/view/627789'
p1023
aS'https://ks.anjuke.com/community/view/372829'
p1024
aS'https://ks.anjuke.com/community/view/1049718'
p1025
aS'https://ks.anjuke.com/community/view/651998'
p1026
aS'https://ks.anjuke.com/community/view/372821'
p1027
aS'https://ks.anjuke.com/community/view/372822'
p1028
aS'https://ks.anjuke.com/community/view/372823'
p1029
aS'https://ks.anjuke.com/community/view/372824'
p1030
aS'https://ks.anjuke.com/community/view/372825'
p1031
aS'https://ks.anjuke.com/community/view/372826'
p1032
aS'https://ks.anjuke.com/community/view/372827'
p1033
aS'https://ks.anjuke.com/community/view/375375'
p1034
aS'https://ks.anjuke.com/community/view/310495'
p1035
aS'https://ks.anjuke.com/community/view/436058'
p1036
aS'https://ks.anjuke.com/community/view/310366'
p1037
aS'https://ks.anjuke.com/community/view/374206'
p1038
aS'https://ks.anjuke.com/community/view/547309'
p1039
aS'https://ks.anjuke.com/community/view/618676'
p1040
aS'https://ks.anjuke.com/community/view/314959'
p1041
aS'https://ks.anjuke.com/community/view/561130'
p1042
aS'https://ks.anjuke.com/community/view/727832'
p1043
aS'https://ks.anjuke.com/community/view/594934'
p1044
aS'https://ks.anjuke.com/community/view/591384'
p1045
aS'https://ks.anjuke.com/community/view/1049799'
p1046
aS'https://ks.anjuke.com/community/view/1049798'
p1047
aS'https://ks.anjuke.com/community/view/1031929'
p1048
aS'https://ks.anjuke.com/community/view/564831'
p1049
aS'https://ks.anjuke.com/community/view/1049791'
p1050
aS'https://ks.anjuke.com/community/view/1049790'
p1051
aS'https://ks.anjuke.com/community/view/1031927'
p1052
aS'https://ks.anjuke.com/community/view/1031926'
p1053
aS'https://ks.anjuke.com/community/view/1031921'
p1054
aS'https://ks.anjuke.com/community/view/1031920'
p1055
aS'https://ks.anjuke.com/community/view/1031923'
p1056
aS'https://ks.anjuke.com/community/view/321430'
p1057
aS'https://ks.anjuke.com/community/view/1049801'
p1058
aS'https://ks.anjuke.com/community/view/401671'
p1059
aS'https://ks.anjuke.com/community/view/432757'
p1060
aS'https://ks.anjuke.com/community/view/1031810'
p1061
aS'https://ks.anjuke.com/community/view/1031813'
p1062
aS'https://ks.anjuke.com/community/view/1031812'
p1063
aS'https://ks.anjuke.com/community/view/1031949'
p1064
aS'https://ks.anjuke.com/community/view/1031817'
p1065
aS'https://ks.anjuke.com/community/view/1031816'
p1066
aS'https://ks.anjuke.com/community/view/1049774'
p1067
aS'https://ks.anjuke.com/community/view/1049805'
p1068
aS'https://ks.anjuke.com/community/view/310247'
p1069
aS'https://ks.anjuke.com/community/view/1049804'
p1070
aS'https://ks.anjuke.com/community/view/310222'
p1071
aS'https://ks.anjuke.com/community/view/780997'
p1072
aS'https://ks.anjuke.com/community/view/778556'
p1073
aS'https://ks.anjuke.com/community/view/1031769'
p1074
aS'https://ks.anjuke.com/community/view/1031768'
p1075
aS'https://ks.anjuke.com/community/view/1031943'
p1076
aS'https://ks.anjuke.com/community/view/1049808'
p1077
aS'https://ks.anjuke.com/community/view/314903'
p1078
aS'https://ks.anjuke.com/community/view/314900'
p1079
aS'https://ks.anjuke.com/community/view/314907'
p1080
aS'https://ks.anjuke.com/community/view/1035225'
p1081
aS'https://ks.anjuke.com/community/view/477052'
p1082
aS'https://ks.anjuke.com/community/view/438851'
p1083
aS'https://ks.anjuke.com/community/view/779845'
p1084
aS'https://ks.anjuke.com/community/view/1035223'
p1085
aS'https://ks.anjuke.com/community/view/1031761'
p1086
aS'https://ks.anjuke.com/community/view/1051099'
p1087
aS'https://ks.anjuke.com/community/view/1054759'
p1088
aS'https://ks.anjuke.com/community/view/780865'
p1089
aS'https://ks.anjuke.com/community/view/605598'
p1090
aS'https://ks.anjuke.com/community/view/607577'
p1091
aS'https://ks.anjuke.com/community/view/309911'
p1092
aS'https://ks.anjuke.com/community/view/373808'
p1093
aS'https://ks.anjuke.com/community/view/793578'
p1094
aS'https://ks.anjuke.com/community/view/1033096'
p1095
aS'https://ks.anjuke.com/community/view/373998'
p1096
aS'https://ks.anjuke.com/community/view/396343'
p1097
aS'https://ks.anjuke.com/community/view/510233'
p1098
aS'https://ks.anjuke.com/community/view/786614'
p1099
aS'https://ks.anjuke.com/community/view/786615'
p1100
aS'https://ks.anjuke.com/community/view/786616'
p1101
aS'https://ks.anjuke.com/community/view/786617'
p1102
aS'https://ks.anjuke.com/community/view/786610'
p1103
aS'https://ks.anjuke.com/community/view/786611'
p1104
aS'https://ks.anjuke.com/community/view/786612'
p1105
aS'https://ks.anjuke.com/community/view/786613'
p1106
aS'https://ks.anjuke.com/community/view/310024'
p1107
aS'https://ks.anjuke.com/community/view/310025'
p1108
aS'https://ks.anjuke.com/community/view/310026'
p1109
aS'https://ks.anjuke.com/community/view/310027'
p1110
aS'https://ks.anjuke.com/community/view/310020'
p1111
aS'https://ks.anjuke.com/community/view/786619'
p1112
aS'https://ks.anjuke.com/community/view/310022'
p1113
aS'https://ks.anjuke.com/community/view/310023'
p1114
aS'https://ks.anjuke.com/community/view/596369'
p1115
aS'https://ks.anjuke.com/community/view/309853'
p1116
aS'https://ks.anjuke.com/community/view/309852'
p1117
aS'https://ks.anjuke.com/community/view/309851'
p1118
aS'https://ks.anjuke.com/community/view/309850'
p1119
aS'https://ks.anjuke.com/community/view/309857'
p1120
aS'https://ks.anjuke.com/community/view/309856'
p1121
aS'https://ks.anjuke.com/community/view/309855'
p1122
aS'https://ks.anjuke.com/community/view/309854'
p1123
aS'https://ks.anjuke.com/community/view/309859'
p1124
aS'https://ks.anjuke.com/community/view/309858'
p1125
aS'https://ks.anjuke.com/community/view/786688'
p1126
aS'https://ks.anjuke.com/community/view/412380'
p1127
aS'https://ks.anjuke.com/community/view/576198'
p1128
aS'https://ks.anjuke.com/community/view/604887'
p1129
aS'https://ks.anjuke.com/community/view/659990'
p1130
aS'https://ks.anjuke.com/community/view/452433'
p1131
aS'https://ks.anjuke.com/community/view/790619'
p1132
aS'https://ks.anjuke.com/community/view/1049821'
p1133
aS'https://ks.anjuke.com/community/view/1058461'
p1134
aS'https://ks.anjuke.com/community/view/1058460'
p1135
aS'https://ks.anjuke.com/community/view/589992'
p1136
aS'https://ks.anjuke.com/community/view/581830'
p1137
aS'https://ks.anjuke.com/community/view/434113'
p1138
aS'https://ks.anjuke.com/community/view/1049820'
p1139
aS'https://ks.anjuke.com/community/view/310488'
p1140
aS'https://ks.anjuke.com/community/view/310489'
p1141
aS'https://ks.anjuke.com/community/view/547688'
p1142
aS'https://ks.anjuke.com/community/view/310482'
p1143
aS'https://ks.anjuke.com/community/view/310483'
p1144
aS'https://ks.anjuke.com/community/view/320349'
p1145
aS'https://ks.anjuke.com/community/view/310486'
p1146
aS'https://ks.anjuke.com/community/view/310485'
p1147
aS'https://ks.anjuke.com/community/view/310374'
p1148
aS'https://ks.anjuke.com/community/view/310375'
p1149
aS'https://ks.anjuke.com/community/view/310376'
p1150
aS'https://ks.anjuke.com/community/view/394265'
p1151
aS'https://ks.anjuke.com/community/view/310370'
p1152
aS'https://ks.anjuke.com/community/view/467871'
p1153
aS'https://ks.anjuke.com/community/view/310372'
p1154
aS'https://ks.anjuke.com/community/view/310373'
p1155
aS'https://ks.anjuke.com/community/view/408265'
p1156
aS'https://ks.anjuke.com/community/view/310378'
p1157
aS'https://ks.anjuke.com/community/view/310379'
p1158
aS'https://ks.anjuke.com/community/view/309927'
p1159
aS'https://ks.anjuke.com/community/view/606967'
p1160
aS'https://ks.anjuke.com/community/view/309862'
p1161
aS'https://ks.anjuke.com/community/view/418536'
p1162
aS'https://ks.anjuke.com/community/view/912264'
p1163
aS'https://ks.anjuke.com/community/view/606969'
p1164
aS'https://ks.anjuke.com/community/view/593062'
p1165
aS'https://ks.anjuke.com/community/view/619427'
p1166
aS'https://ks.anjuke.com/community/view/373326'
p1167
aS'https://ks.anjuke.com/community/view/786667'
p1168
aS'https://ks.anjuke.com/community/view/627554'
p1169
aS'https://ks.anjuke.com/community/view/786660'
p1170
aS'https://ks.anjuke.com/community/view/570110'
p1171
aS'https://ks.anjuke.com/community/view/1035385'
p1172
aS'https://ks.anjuke.com/community/view/504196'
p1173
aS'https://ks.anjuke.com/community/view/310055'
p1174
aS'https://ks.anjuke.com/community/view/1049701'
p1175
aS'https://ks.anjuke.com/community/view/310054'
p1176
aS'https://ks.anjuke.com/community/view/310057'
p1177
aS'https://ks.anjuke.com/community/view/1031796'
p1178
aS'https://ks.anjuke.com/community/view/1031797'
p1179
aS'https://ks.anjuke.com/community/view/317922'
p1180
aS'https://ks.anjuke.com/community/view/309955'
p1181
aS'https://ks.anjuke.com/community/view/1031792'
p1182
aS'https://ks.anjuke.com/community/view/1031793'
p1183
aS'https://ks.anjuke.com/community/view/1031790'
p1184
aS'https://ks.anjuke.com/community/view/310051'
p1185
aS'https://ks.anjuke.com/community/view/310050'
p1186
aS'https://ks.anjuke.com/community/view/310049'
p1187
aS'https://ks.anjuke.com/community/view/764476'
p1188
aS'https://ks.anjuke.com/community/view/725283'
p1189
aS'https://ks.anjuke.com/community/view/466688'
p1190
aS'https://ks.anjuke.com/community/view/309950'
p1191
aS'https://ks.anjuke.com/community/view/310052'
p1192
aS'https://ks.anjuke.com/community/view/1072205'
p1193
aS'https://ks.anjuke.com/community/view/1072204'
p1194
aS'https://ks.anjuke.com/community/view/1072207'
p1195
aS'https://ks.anjuke.com/community/view/1072206'
p1196
aS'https://ks.anjuke.com/community/view/1072201'
p1197
aS'https://ks.anjuke.com/community/view/1072200'
p1198
aS'https://ks.anjuke.com/community/view/1072202'
p1199
aS'https://ks.anjuke.com/community/view/372815'
p1200
aS'https://ks.anjuke.com/community/view/372814'
p1201
aS'https://ks.anjuke.com/community/view/372811'
p1202
aS'https://ks.anjuke.com/community/view/1072208'
p1203
aS'https://ks.anjuke.com/community/view/372813'
p1204
aS'https://ks.anjuke.com/community/view/372812'
p1205
aS'https://ks.anjuke.com/community/view/383242'
p1206
aS'https://ks.anjuke.com/community/view/433587'
p1207
aS'https://ks.anjuke.com/community/view/309813'
p1208
aS'https://ks.anjuke.com/community/view/801337'
p1209
aS'https://ks.anjuke.com/community/view/326738'
p1210
aS'https://ks.anjuke.com/community/view/368127'
p1211
aS'https://ks.anjuke.com/community/view/309709'
p1212
aS'https://ks.anjuke.com/community/view/309708'
p1213
aS'https://ks.anjuke.com/community/view/309703'
p1214
aS'https://ks.anjuke.com/community/view/454345'
p1215
aS'https://ks.anjuke.com/community/view/309701'
p1216
aS'https://ks.anjuke.com/community/view/309700'
p1217
aS'https://ks.anjuke.com/community/view/309707'
p1218
aS'https://ks.anjuke.com/community/view/309706'
p1219
aS'https://ks.anjuke.com/community/view/309705'
p1220
aS'https://ks.anjuke.com/community/view/309704'
p1221
aS'https://ks.anjuke.com/community/view/396765'
p1222
aS'https://ks.anjuke.com/community/view/1049816'
p1223
aS'https://ks.anjuke.com/community/view/1049817'
p1224
aS'https://ks.anjuke.com/community/view/1049814'
p1225
aS'https://ks.anjuke.com/community/view/1049767'
p1226
aS'https://ks.anjuke.com/community/view/1049812'
p1227
aS'https://ks.anjuke.com/community/view/1049813'
p1228
aS'https://ks.anjuke.com/community/view/1049762'
p1229
aS'https://ks.anjuke.com/community/view/1049763'
p1230
aS'https://ks.anjuke.com/community/view/1031774'
p1231
aS'https://ks.anjuke.com/community/view/1031951'
p1232
aS'https://ks.anjuke.com/community/view/1031952'
p1233
aS'https://ks.anjuke.com/community/view/1049768'
p1234
aS'https://ks.anjuke.com/community/view/1049769'
p1235
aS'https://ks.anjuke.com/community/view/1049818'
p1236
aS'https://ks.anjuke.com/community/view/1049819'
p1237
aS'https://ks.anjuke.com/community/view/990867'
p1238
aS'https://ks.anjuke.com/community/view/309925'
p1239
aS'https://ks.anjuke.com/community/view/792349'
p1240
aS'https://ks.anjuke.com/community/view/310090'
p1241
aS'https://ks.anjuke.com/community/view/579239'
p1242
aS'https://ks.anjuke.com/community/view/309929'
p1243
aS'https://ks.anjuke.com/community/view/579523'
p1244
aS'https://ks.anjuke.com/community/view/314949'
p1245
aS'https://ks.anjuke.com/community/view/578896'
p1246
aS'https://ks.anjuke.com/community/view/795596'
p1247
aS'https://ks.anjuke.com/community/view/596954'
p1248
aS'https://ks.anjuke.com/community/view/619895'
p1249
aS'https://ks.anjuke.com/community/view/778528'
p1250
aS'https://ks.anjuke.com/community/view/476887'
p1251
aS'https://ks.anjuke.com/community/view/314910'
p1252
aS'https://ks.anjuke.com/community/view/314915'
p1253
aS'https://ks.anjuke.com/community/view/314916'
p1254
aS'https://ks.anjuke.com/community/view/651745'
p1255
aS'https://ks.anjuke.com/community/view/1054760'
p1256
aS'https://ks.anjuke.com/community/view/1054761'
p1257
aS'https://ks.anjuke.com/community/view/382044'
p1258
aS'https://ks.anjuke.com/community/view/792764'
p1259
aS'https://ks.anjuke.com/community/view/559947'
p1260
aS'https://ks.anjuke.com/community/view/309762'
p1261
aS'https://ks.anjuke.com/community/view/628314'
p1262
aS'https://ks.anjuke.com/community/view/573802'
p1263
aS'https://ks.anjuke.com/community/view/321086'
p1264
aS'https://ks.anjuke.com/community/view/357381'
p1265
aS'https://ks.anjuke.com/community/view/346033'
p1266
aS'https://ks.anjuke.com/community/view/786596'
p1267
aS'https://ks.anjuke.com/community/view/786594'
p1268
aS'https://ks.anjuke.com/community/view/786593'
p1269
aS'https://ks.anjuke.com/community/view/786592'
p1270
aS'https://ks.anjuke.com/community/view/786591'
p1271
aS'https://ks.anjuke.com/community/view/786590'
p1272
aS'https://ks.anjuke.com/community/view/321174'
p1273
aS'https://ks.anjuke.com/community/view/908806'
p1274
aS'https://ks.anjuke.com/community/view/786599'
p1275
aS'https://ks.anjuke.com/community/view/786598'
p1276
aS'https://ks.anjuke.com/community/view/553575'
p1277
aS'https://ks.anjuke.com/community/view/509077'
p1278
aS'https://ks.anjuke.com/community/view/608417'
p1279
aS'https://ks.anjuke.com/community/view/1033239'
p1280
aS'https://ks.anjuke.com/community/view/366905'
p1281
aS'https://ks.anjuke.com/community/view/538456'
p1282
aS'https://ks.anjuke.com/community/view/586155'
p1283
aS'https://ks.anjuke.com/community/view/376959'
p1284
aS'https://ks.anjuke.com/community/view/310013'
p1285
aS'https://ks.anjuke.com/community/view/310015'
p1286
aS'https://ks.anjuke.com/community/view/310014'
p1287
aS'https://ks.anjuke.com/community/view/310017'
p1288
aS'https://ks.anjuke.com/community/view/310016'
p1289
aS'https://ks.anjuke.com/community/view/727376'
p1290
aS'https://ks.anjuke.com/community/view/310018'
p1291
aS'https://ks.anjuke.com/community/view/309840'
p1292
aS'https://ks.anjuke.com/community/view/309841'
p1293
aS'https://ks.anjuke.com/community/view/309842'
p1294
aS'https://ks.anjuke.com/community/view/309843'
p1295
aS'https://ks.anjuke.com/community/view/309844'
p1296
aS'https://ks.anjuke.com/community/view/309845'
p1297
aS'https://ks.anjuke.com/community/view/309846'
p1298
aS'https://ks.anjuke.com/community/view/309847'
p1299
aS'https://ks.anjuke.com/community/view/309848'
p1300
aS'https://ks.anjuke.com/community/view/309849'
p1301
aS'https://ks.anjuke.com/community/view/786629'
p1302
aS'https://ks.anjuke.com/community/view/786628'
p1303
aS'https://ks.anjuke.com/community/view/1049705'
p1304
aS'https://ks.anjuke.com/community/view/786621'
p1305
aS'https://ks.anjuke.com/community/view/786620'
p1306
aS'https://ks.anjuke.com/community/view/786623'
p1307
aS'https://ks.anjuke.com/community/view/310236'
p1308
aS'https://ks.anjuke.com/community/view/786625'
p1309
aS'https://ks.anjuke.com/community/view/786624'
p1310
aS'https://ks.anjuke.com/community/view/786627'
p1311
aS'https://ks.anjuke.com/community/view/786626'
p1312
aS'https://ks.anjuke.com/community/view/1031718'
p1313
aS'https://ks.anjuke.com/community/view/1031719'
p1314
aS'https://ks.anjuke.com/community/view/460961'
p1315
aS'https://ks.anjuke.com/community/view/637386'
p1316
aS'https://ks.anjuke.com/community/view/408455'
p1317
aS'https://ks.anjuke.com/community/view/364694'
p1318
aS'https://ks.anjuke.com/community/view/1031713'
p1319
aS'https://ks.anjuke.com/community/view/317009'
p1320
aS'https://ks.anjuke.com/community/view/317008'
p1321
aS'https://ks.anjuke.com/community/view/1049709'
p1322
aS'https://ks.anjuke.com/community/view/789200'
p1323
aS'https://ks.anjuke.com/community/view/789201'
p1324
aS'https://ks.anjuke.com/community/view/310341'
p1325
aS'https://ks.anjuke.com/community/view/310340'
p1326
aS'https://ks.anjuke.com/community/view/310342'
p1327
aS'https://ks.anjuke.com/community/view/467847'
p1328
aS'https://ks.anjuke.com/community/view/790739'
p1329
aS'https://ks.anjuke.com/community/view/412353'
p1330
aS'https://ks.anjuke.com/community/view/1053011'
p1331
aS'https://ks.anjuke.com/community/view/456538'
p1332
aS'https://ks.anjuke.com/community/view/597026'
p1333
aS'https://ks.anjuke.com/community/view/331583'
p1334
aS'https://ks.anjuke.com/community/view/1046039'
p1335
aS'https://ks.anjuke.com/community/view/577875'
p1336
aS'https://ks.anjuke.com/community/view/608361'
p1337
aS'https://ks.anjuke.com/community/view/323229'
p1338
aS'https://ks.anjuke.com/community/view/331472'
p1339
aS'https://ks.anjuke.com/community/view/373030'
p1340
aS'https://ks.anjuke.com/community/view/485591'
p1341
aS'https://ks.anjuke.com/community/view/318305'
p1342
aS'https://ks.anjuke.com/community/view/627545'
p1343
aS'https://ks.anjuke.com/community/view/778883'
p1344
aS'https://ks.anjuke.com/community/view/657028'
p1345
aS'https://ks.anjuke.com/community/view/1031780'
p1346
aS'https://ks.anjuke.com/community/view/1031783'
p1347
aS'https://ks.anjuke.com/community/view/1031782'
p1348
aS'https://ks.anjuke.com/community/view/1031784'
p1349
aS'https://ks.anjuke.com/community/view/1031786'
p1350
aS'https://ks.anjuke.com/community/view/1031788'
p1351
aS'https://ks.anjuke.com/community/view/344234'
p1352
aS'https://ks.anjuke.com/community/view/317918'
p1353
aS'https://ks.anjuke.com/community/view/318018'
p1354
aS'https://ks.anjuke.com/community/view/1035364'
p1355
aS'https://ks.anjuke.com/community/view/373444'
p1356
aS'https://ks.anjuke.com/community/view/575881'
p1357
aS'https://ks.anjuke.com/community/view/1035363'
p1358
aS'https://ks.anjuke.com/community/view/567857'
p1359
aS'https://ks.anjuke.com/community/view/372802'
p1360
aS'https://ks.anjuke.com/community/view/372803'
p1361
aS'https://ks.anjuke.com/community/view/372806'
p1362
aS'https://ks.anjuke.com/community/view/372807'
p1363
aS'https://ks.anjuke.com/community/view/372804'
p1364
aS'https://ks.anjuke.com/community/view/404871'
p1365
aS'https://ks.anjuke.com/community/view/372809'
p1366
aS'https://ks.anjuke.com/community/view/1035302'
p1367
aS'https://ks.anjuke.com/community/view/1035305'
p1368
aS'https://ks.anjuke.com/community/view/309718'
p1369
aS'https://ks.anjuke.com/community/view/309710'
p1370
aS'https://ks.anjuke.com/community/view/309711'
p1371
aS'https://ks.anjuke.com/community/view/309712'
p1372
aS'https://ks.anjuke.com/community/view/309713'
p1373
aS'https://ks.anjuke.com/community/view/309714'
p1374
aS'https://ks.anjuke.com/community/view/309715'
p1375
aS'https://ks.anjuke.com/community/view/309716'
p1376
aS'https://ks.anjuke.com/community/view/309717'
p1377
aS'https://ks.anjuke.com/community/view/321967'
p1378
aS'https://ks.anjuke.com/community/view/1049777'
p1379
aS'https://ks.anjuke.com/community/view/1049800'
p1380
aS'https://ks.anjuke.com/community/view/1049803'
p1381
aS'https://ks.anjuke.com/community/view/1049802'
p1382
aS'https://ks.anjuke.com/community/view/1049773'
p1383
aS'https://ks.anjuke.com/community/view/1049772'
p1384
aS'https://ks.anjuke.com/community/view/1049807'
p1385
aS'https://ks.anjuke.com/community/view/1049806'
p1386
aS'https://ks.anjuke.com/community/view/1049809'
p1387
aS'https://ks.anjuke.com/community/view/1031766'
p1388
aS'https://ks.anjuke.com/community/view/1035224'
p1389
aS'https://ks.anjuke.com/community/view/1031764'
p1390
aS'https://ks.anjuke.com/community/view/1035222'
p1391
aS'https://ks.anjuke.com/community/view/1031946'
p1392
aS'https://ks.anjuke.com/community/view/1049779'
p1393
aS'https://ks.anjuke.com/community/view/1049778'
p1394
aS'https://ks.anjuke.com/community/view/585491'
p1395
aS'https://ks.anjuke.com/community/view/322088'
p1396
aS'https://ks.anjuke.com/community/view/395438'
p1397
aS'https://ks.anjuke.com/community/view/461434'
p1398
aS'https://ks.anjuke.com/community/view/790857'
p1399
aS'https://ks.anjuke.com/community/view/316745'
p1400
aS'https://ks.anjuke.com/community/view/790856'
p1401
aS'https://ks.anjuke.com/community/view/472622'
p1402
aS'https://ks.anjuke.com/community/view/580154'
p1403
aS'https://ks.anjuke.com/community/view/578142'
p1404
aS'https://ks.anjuke.com/community/view/314926'
p1405
aS'https://ks.anjuke.com/community/view/314921'
p1406
aS'https://ks.anjuke.com/community/view/314923'
p1407
aS'https://ks.anjuke.com/community/view/357021'
p1408
aS'https://ks.anjuke.com/community/view/1035228'
p1409
aS'https://ks.anjuke.com/community/view/530471'
p1410
aS'https://ks.anjuke.com/community/view/587942'
p1411
aS'https://ks.anjuke.com/community/view/807249'
p1412
aS'https://ks.anjuke.com/community/view/570494'
p1413
aS'https://ks.anjuke.com/community/view/1035229'
p1414
aS'https://ks.anjuke.com/community/view/656152'
p1415
aS'https://ks.anjuke.com/community/view/310005'
p1416
aS'https://ks.anjuke.com/community/view/310304'
p1417
aS'https://ks.anjuke.com/community/view/409154'
p1418
aS'https://ks.anjuke.com/community/view/786584'
p1419
aS'https://ks.anjuke.com/community/view/786585'
p1420
aS'https://ks.anjuke.com/community/view/786586'
p1421
aS'https://ks.anjuke.com/community/view/562600'
p1422
aS'https://ks.anjuke.com/community/view/786580'
p1423
aS'https://ks.anjuke.com/community/view/786581'
p1424
aS'https://ks.anjuke.com/community/view/786582'
p1425
aS'https://ks.anjuke.com/community/view/786583'
p1426
aS'https://ks.anjuke.com/community/view/1035226'
p1427
aS'https://ks.anjuke.com/community/view/786588'
p1428
aS'https://ks.anjuke.com/community/view/786589'
p1429
aS'https://ks.anjuke.com/community/view/1031885'
p1430
aS'https://ks.anjuke.com/community/view/1032527'
p1431
aS'https://ks.anjuke.com/community/view/1032528'
p1432
aS'https://ks.anjuke.com/community/view/325714'
p1433
aS'https://ks.anjuke.com/community/view/1031880'
p1434
aS'https://ks.anjuke.com/community/view/1035227'
p1435
aS'https://ks.anjuke.com/community/view/561908'
p1436
aS'https://ks.anjuke.com/community/view/372830'
p1437
aS'https://ks.anjuke.com/community/view/1072098'
p1438
aS'https://ks.anjuke.com/community/view/567202'
p1439
aS'https://ks.anjuke.com/community/view/1031924'
p1440
aS'https://ks.anjuke.com/community/view/1049793'
p1441
aS'https://ks.anjuke.com/community/view/373860'
p1442
aS'https://ks.anjuke.com/community/view/310006'
p1443
aS'https://ks.anjuke.com/community/view/310007'
p1444
aS'https://ks.anjuke.com/community/view/310004'
p1445
aS'https://ks.anjuke.com/community/view/1049792'
p1446
aS'https://ks.anjuke.com/community/view/310002'
p1447
aS'https://ks.anjuke.com/community/view/310003'
p1448
aS'https://ks.anjuke.com/community/view/310000'
p1449
aS'https://ks.anjuke.com/community/view/310001'
p1450
aS'https://ks.anjuke.com/community/view/372837'
p1451
aS'https://ks.anjuke.com/community/view/1049795'
p1452
aS'https://ks.anjuke.com/community/view/310008'
p1453
aS'https://ks.anjuke.com/community/view/310009'
p1454
aS'https://ks.anjuke.com/community/view/1049797'
p1455
aS'https://ks.anjuke.com/community/view/499086'
p1456
aS'https://ks.anjuke.com/community/view/1049796'
p1457
aS'https://ks.anjuke.com/community/view/1032630'
p1458
aS'https://ks.anjuke.com/community/view/782339'
p1459
aS'https://ks.anjuke.com/community/view/309875'
p1460
aS'https://ks.anjuke.com/community/view/309874'
p1461
aS'https://ks.anjuke.com/community/view/309877'
p1462
aS'https://ks.anjuke.com/community/view/309876'
p1463
aS'https://ks.anjuke.com/community/view/309871'
p1464
aS'https://ks.anjuke.com/community/view/309870'
p1465
aS'https://ks.anjuke.com/community/view/309873'
p1466
aS'https://ks.anjuke.com/community/view/309872'
p1467
aS'https://ks.anjuke.com/community/view/309879'
p1468
aS'https://ks.anjuke.com/community/view/309878'
p1469
aS'https://ks.anjuke.com/community/view/786638'
p1470
aS'https://ks.anjuke.com/community/view/786639'
p1471
aS'https://ks.anjuke.com/community/view/786636'
p1472
aS'https://ks.anjuke.com/community/view/786637'
p1473
aS'https://ks.anjuke.com/community/view/786634'
p1474
aS'https://ks.anjuke.com/community/view/786635'
p1475
aS'https://ks.anjuke.com/community/view/786632'
p1476
aS'https://ks.anjuke.com/community/view/786633'
p1477
aS'https://ks.anjuke.com/community/view/786630'
p1478
aS'https://ks.anjuke.com/community/view/786631'
p1479
aS'https://ks.anjuke.com/community/view/372835'
p1480
aS'https://ks.anjuke.com/community/view/1049811'
p1481
aS'https://ks.anjuke.com/community/view/372834'
p1482
aS'https://ks.anjuke.com/community/view/452253'
p1483
aS'https://ks.anjuke.com/community/view/789195'
p1484
aS'https://ks.anjuke.com/community/view/789474'
p1485
aS'https://ks.anjuke.com/community/view/608579'
p1486
aS'https://ks.anjuke.com/community/view/376560'
p1487
aS'https://ks.anjuke.com/community/view/794352'
p1488
aS'https://ks.anjuke.com/community/view/354251'
p1489
aS'https://ks.anjuke.com/community/view/1072157'
p1490
aS'https://ks.anjuke.com/community/view/608373'
p1491
aS'https://ks.anjuke.com/community/view/375837'
p1492
aS'https://ks.anjuke.com/community/view/764874'
p1493
aS'https://ks.anjuke.com/community/view/764875'
p1494
aS'https://ks.anjuke.com/community/view/411239'
p1495
aS'https://ks.anjuke.com/community/view/590938'
p1496
aS'https://ks.anjuke.com/community/view/571959'
p1497
aS'https://ks.anjuke.com/community/view/570134'
p1498
aS'https://ks.anjuke.com/community/view/728864'
p1499
aS'https://ks.anjuke.com/community/view/593913'
p1500
aS'https://ks.anjuke.com/community/view/539550'
p1501
aS'https://ks.anjuke.com/community/view/618593'
p1502
aS'https://ks.anjuke.com/community/view/1049677'
p1503
aS'https://ks.anjuke.com/community/view/395542'
p1504
aS'https://ks.anjuke.com/community/view/746829'
p1505
aS'https://ks.anjuke.com/community/view/746825'
p1506
aS'https://ks.anjuke.com/community/view/485324'
p1507
aS'https://ks.anjuke.com/community/view/1031688'
p1508
aS'https://ks.anjuke.com/community/view/332078'
p1509
aS'https://ks.anjuke.com/community/view/309729'
p1510
aS'https://ks.anjuke.com/community/view/309728'
p1511
aS'https://ks.anjuke.com/community/view/309725'
p1512
aS'https://ks.anjuke.com/community/view/309724'
p1513
aS'https://ks.anjuke.com/community/view/309727'
p1514
aS'https://ks.anjuke.com/community/view/309726'
p1515
aS'https://ks.anjuke.com/community/view/309721'
p1516
aS'https://ks.anjuke.com/community/view/1031685'
p1517
aS'https://ks.anjuke.com/community/view/309723'
p1518
aS'https://ks.anjuke.com/community/view/309722'
p1519
aS'https://ks.anjuke.com/community/view/372858'
p1520
aS'https://ks.anjuke.com/community/view/620001'
p1521
aS'https://ks.anjuke.com/community/view/420445'
p1522
aS'https://ks.anjuke.com/community/view/1035239'
p1523
aS'https://ks.anjuke.com/community/view/1035238'
p1524
aS'https://ks.anjuke.com/community/view/1031759'
p1525
aS'https://ks.anjuke.com/community/view/373456'
p1526
aS'https://ks.anjuke.com/community/view/572975'
p1527
aS'https://ks.anjuke.com/community/view/1035231'
p1528
aS'https://ks.anjuke.com/community/view/1035230'
p1529
aS'https://ks.anjuke.com/community/view/1035233'
p1530
aS'https://ks.anjuke.com/community/view/1035232'
p1531
aS'https://ks.anjuke.com/community/view/1035235'
p1532
aS'https://ks.anjuke.com/community/view/1035234'
p1533
aS'https://ks.anjuke.com/community/view/1031754'
p1534
aS'https://ks.anjuke.com/community/view/1035236'
p1535
aS'https://ks.anjuke.com/community/view/310072'
p1536
aS'https://ks.anjuke.com/community/view/791893'
p1537
aS'https://ks.anjuke.com/community/view/374323'
p1538
aS'https://ks.anjuke.com/community/view/795468'
p1539
aS'https://ks.anjuke.com/community/view/795467'
p1540
aS'https://ks.anjuke.com/community/view/778437'
p1541
aS'https://ks.anjuke.com/community/view/795466'
p1542
aS'https://ks.anjuke.com/community/view/310077'
p1543
aS'https://ks.anjuke.com/community/view/316626'
p1544
aS'https://ks.anjuke.com/community/view/372853'
p1545
aS'https://ks.anjuke.com/community/view/569500'
p1546
aS'https://ks.anjuke.com/community/view/310074'
p1547
aS'https://ks.anjuke.com/community/view/314932'
p1548
aS'https://ks.anjuke.com/community/view/314931'
p1549
aS'https://ks.anjuke.com/community/view/314936'
p1550
aS'https://ks.anjuke.com/community/view/314937'
p1551
aS'https://ks.anjuke.com/community/view/376717'
p1552
aS'https://ks.anjuke.com/community/view/310079'
p1553
aS'https://ks.anjuke.com/community/view/458276'
p1554
aS'https://ks.anjuke.com/community/view/310078'
p1555
aS'https://ks.anjuke.com/community/view/653092'
p1556
aS'https://ks.anjuke.com/community/view/595305'
p1557
aS'https://ks.anjuke.com/community/view/1042423'
p1558
aS'https://ks.anjuke.com/community/view/326575'
p1559
aS'https://ks.anjuke.com/community/view/550564'
p1560
aS'https://ks.anjuke.com/community/view/619987'
p1561
aS'https://ks.anjuke.com/community/view/530686'
p1562
aS'https://ks.anjuke.com/community/view/1043675'
p1563
aS'https://ks.anjuke.com/community/view/1043676'
p1564
aS'https://ks.anjuke.com/community/view/401880'
p1565
aS'https://ks.anjuke.com/community/view/618905'
p1566
aS'https://ks.anjuke.com/community/view/317483'
p1567
aS'https://ks.anjuke.com/community/view/797821'
p1568
aS'https://ks.anjuke.com/community/view/991373'
p1569
aS'https://ks.anjuke.com/community/view/471446'
p1570
aS'https://ks.anjuke.com/community/view/1031866'
p1571
aS'https://ks.anjuke.com/community/view/991377'
p1572
aS'https://ks.anjuke.com/community/view/428828'
p1573
aS'https://ks.anjuke.com/community/view/324594'
p1574
aS'https://ks.anjuke.com/community/view/1032629'
p1575
aS'https://ks.anjuke.com/community/view/803088'
p1576
aS'https://ks.anjuke.com/community/view/1032627'
p1577
aS'https://ks.anjuke.com/community/view/764338'
p1578
aS'https://ks.anjuke.com/community/view/764333'
p1579
aS'https://ks.anjuke.com/community/view/764337'
p1580
aS'https://ks.anjuke.com/community/view/764334'
p1581
aS'https://ks.anjuke.com/community/view/412020'
p1582
aS'https://ks.anjuke.com/community/view/516750'
p1583
aS'https://ks.anjuke.com/community/view/310108'
p1584
aS'https://ks.anjuke.com/community/view/1035342'
p1585
aS'https://ks.anjuke.com/community/view/310105'
p1586
aS'https://ks.anjuke.com/community/view/310104'
p1587
aS'https://ks.anjuke.com/community/view/310103'
p1588
aS'https://ks.anjuke.com/community/view/310102'
p1589
aS'https://ks.anjuke.com/community/view/310101'
p1590
aS'https://ks.anjuke.com/community/view/310100'
p1591
aS'https://ks.anjuke.com/community/view/309868'
p1592
aS'https://ks.anjuke.com/community/view/309869'
p1593
aS'https://ks.anjuke.com/community/view/463499'
p1594
aS'https://ks.anjuke.com/community/view/309863'
p1595
aS'https://ks.anjuke.com/community/view/551513'
p1596
aS'https://ks.anjuke.com/community/view/309861'
p1597
aS'https://ks.anjuke.com/community/view/309866'
p1598
aS'https://ks.anjuke.com/community/view/309867'
p1599
aS'https://ks.anjuke.com/community/view/309864'
p1600
aS'https://ks.anjuke.com/community/view/309865'
p1601
aS'https://ks.anjuke.com/community/view/762186'
p1602
aS'https://ks.anjuke.com/community/view/762185'
p1603
aS'https://ks.anjuke.com/community/view/349508'
p1604
aS'https://ks.anjuke.com/community/view/561042'
p1605
aS'https://ks.anjuke.com/community/view/549169'
p1606
aS'https://ks.anjuke.com/community/view/429081'
p1607
aS'https://ks.anjuke.com/community/view/376575'
p1608
aS'https://ks.anjuke.com/community/view/310215'
p1609
aS'https://ks.anjuke.com/community/view/407650'
p1610
aS'https://ks.anjuke.com/community/view/569676'
p1611
aS'https://ks.anjuke.com/community/view/576926'
p1612
aS'https://ks.anjuke.com/community/view/591880'
p1613
aS'https://ks.anjuke.com/community/view/371925'
p1614
aS'https://ks.anjuke.com/community/view/316998'
p1615
aS'https://ks.anjuke.com/community/view/606914'
p1616
aS'https://ks.anjuke.com/community/view/614853'
p1617
aS'https://ks.anjuke.com/community/view/533229'
p1618
aS'https://ks.anjuke.com/community/view/721132'
p1619
aS'https://ks.anjuke.com/community/view/868399'
p1620
aS'https://ks.anjuke.com/community/view/795413'
p1621
aS'https://ks.anjuke.com/community/view/378128'
p1622
aS'https://ks.anjuke.com/community/view/316578'
p1623
aS'https://ks.anjuke.com/community/view/372860'
p1624
aS'https://ks.anjuke.com/community/view/1072099'
p1625
aS'https://ks.anjuke.com/community/view/372862'
p1626
aS'https://ks.anjuke.com/community/view/378126'
p1627
aS'https://ks.anjuke.com/community/view/627696'
p1628
aS'https://ks.anjuke.com/community/view/1035421'
p1629
aS'https://ks.anjuke.com/community/view/1035422'
p1630
aS'https://ks.anjuke.com/community/view/1035423'
p1631
aS'https://ks.anjuke.com/community/view/1035424'
p1632
aS'https://ks.anjuke.com/community/view/1035425'
p1633
aS'https://ks.anjuke.com/community/view/556243'
p1634
aS'https://ks.anjuke.com/community/view/595793'
p1635
aS'https://ks.anjuke.com/community/view/595792'
p1636
aS'https://ks.anjuke.com/community/view/595791'
p1637
aS'https://ks.anjuke.com/community/view/725093'
p1638
aS'https://ks.anjuke.com/community/view/309732'
p1639
aS'https://ks.anjuke.com/community/view/309733'
p1640
aS'https://ks.anjuke.com/community/view/1031699'
p1641
aS'https://ks.anjuke.com/community/view/309731'
p1642
aS'https://ks.anjuke.com/community/view/309736'
p1643
aS'https://ks.anjuke.com/community/view/309737'
p1644
aS'https://ks.anjuke.com/community/view/309734'
p1645
aS'https://ks.anjuke.com/community/view/309735'
p1646
aS'https://ks.anjuke.com/community/view/1031693'
p1647
aS'https://ks.anjuke.com/community/view/1031691'
p1648
aS'https://ks.anjuke.com/community/view/309739'
p1649
aS'https://ks.anjuke.com/community/view/1031697'
p1650
aS'https://ks.anjuke.com/community/view/1031694'
p1651
aS'https://ks.anjuke.com/community/view/319368'
p1652
aS'https://ks.anjuke.com/community/view/616879'
p1653
aS'https://ks.anjuke.com/community/view/1031745'
p1654
aS'https://ks.anjuke.com/community/view/378522'
p1655
aS'https://ks.anjuke.com/community/view/653662'
p1656
aS'https://ks.anjuke.com/community/view/1031904'
p1657
aS'https://ks.anjuke.com/community/view/1031740'
p1658
aS'https://ks.anjuke.com/community/view/1031742'
p1659
aS'https://ks.anjuke.com/community/view/1031748'
p1660
aS'https://ks.anjuke.com/community/view/1031902'
p1661
aS'https://ks.anjuke.com/community/view/319860'
p1662
aS'https://ks.anjuke.com/community/view/792379'
p1663
aS'https://ks.anjuke.com/community/view/507509'
p1664
aS'https://ks.anjuke.com/community/view/319692'
p1665
aS'https://ks.anjuke.com/community/view/535214'
p1666
aS'https://ks.anjuke.com/community/view/658878'
p1667
aS'https://ks.anjuke.com/community/view/409551'
p1668
aS'https://ks.anjuke.com/community/view/506714'
p1669
aS'https://ks.anjuke.com/community/view/314944'
p1670
aS'https://ks.anjuke.com/community/view/319215'
p1671
aS'https://ks.anjuke.com/community/view/314940'
p1672
aS'https://ks.anjuke.com/community/view/1035265'
p1673
aS'https://ks.anjuke.com/community/view/793711'
p1674
aS'https://ks.anjuke.com/community/view/796478'
p1675
aS'https://ks.anjuke.com/community/view/612237'
p1676
aS'https://ks.anjuke.com/community/view/473804'
p1677
aS'https://ks.anjuke.com/community/view/617271'
p1678
aS'https://ks.anjuke.com/community/view/368412'
p1679
aS'https://ks.anjuke.com/community/view/613322'
p1680
aS'https://ks.anjuke.com/community/view/605715'
p1681
aS'https://ks.anjuke.com/community/view/397446'
p1682
aS'https://ks.anjuke.com/community/view/717414'
p1683
aS'https://ks.anjuke.com/community/view/580556'
p1684
aS'https://ks.anjuke.com/community/view/727010'
p1685
aS'https://ks.anjuke.com/community/view/606283'
p1686
aS'https://ks.anjuke.com/community/view/414318'
p1687
aS'https://ks.anjuke.com/community/view/595938'
p1688
aS'https://ks.anjuke.com/community/view/358510'
p1689
aS'https://ks.anjuke.com/community/view/529470'
p1690
aS'https://ks.anjuke.com/community/view/595935'
p1691
aS'https://ks.anjuke.com/community/view/786376'
p1692
aS'https://ks.anjuke.com/community/view/594957'
p1693
aS'https://ks.anjuke.com/community/view/583996'
p1694
aS'https://ks.anjuke.com/community/view/594955'
p1695
aS'https://ks.anjuke.com/community/view/480757'
p1696
aS'https://ks.anjuke.com/community/view/793448'
p1697
aS'https://ks.anjuke.com/community/view/572232'
p1698
aS'https://ks.anjuke.com/community/view/594958'
p1699
aS'https://ks.anjuke.com/community/view/580954'
p1700
aS'https://ks.anjuke.com/community/view/791680'
p1701
aS'https://ks.anjuke.com/community/view/410894'
p1702
aS'https://ks.anjuke.com/community/view/310028'
p1703
aS'https://ks.anjuke.com/community/view/545464'
p1704
aS'https://ks.anjuke.com/community/view/520968'
p1705
aS'https://ks.anjuke.com/community/view/790380'
p1706
aS'https://ks.anjuke.com/community/view/790382'
p1707
aS'https://ks.anjuke.com/community/view/310118'
p1708
aS'https://ks.anjuke.com/community/view/310119'
p1709
aS'https://ks.anjuke.com/community/view/310115'
p1710
aS'https://ks.anjuke.com/community/view/310116'
p1711
aS'https://ks.anjuke.com/community/view/310117'
p1712
aS'https://ks.anjuke.com/community/view/310110'
p1713
aS'https://ks.anjuke.com/community/view/310111'
p1714
aS'https://ks.anjuke.com/community/view/310112'
p1715
aS'https://ks.anjuke.com/community/view/310113'
p1716
aS'https://ks.anjuke.com/community/view/606622'
p1717
aS'https://ks.anjuke.com/community/view/569442'
p1718
aS'https://ks.anjuke.com/community/view/309819'
p1719
aS'https://ks.anjuke.com/community/view/309818'
p1720
aS'https://ks.anjuke.com/community/view/309817'
p1721
aS'https://ks.anjuke.com/community/view/309816'
p1722
aS'https://ks.anjuke.com/community/view/309815'
p1723
aS'https://ks.anjuke.com/community/view/309814'
p1724
aS'https://ks.anjuke.com/community/view/554022'
p1725
aS'https://ks.anjuke.com/community/view/309812'
p1726
aS'https://ks.anjuke.com/community/view/309811'
p1727
aS'https://ks.anjuke.com/community/view/309810'
p1728
aS'https://ks.anjuke.com/community/view/309923'
p1729
aS'https://ks.anjuke.com/community/view/309922'
p1730
aS'https://ks.anjuke.com/community/view/309921'
p1731
aS'https://ks.anjuke.com/community/view/309920'
p1732
aS'https://ks.anjuke.com/community/view/325684'
p1733
aS'https://ks.anjuke.com/community/view/309926'
p1734
aS'https://ks.anjuke.com/community/view/408422'
p1735
aS'https://ks.anjuke.com/community/view/309924'
p1736
aS'https://ks.anjuke.com/community/view/786618'
p1737
aS'https://ks.anjuke.com/community/view/519896'
p1738
aS'https://ks.anjuke.com/community/view/309928'
p1739
aS'https://ks.anjuke.com/community/view/310021'
p1740
aS'https://ks.anjuke.com/community/view/310288'
p1741
aS'https://ks.anjuke.com/community/view/375198'
p1742
aS'https://ks.anjuke.com/community/view/310284'
p1743
aS'https://ks.anjuke.com/community/view/310285'
p1744
aS'https://ks.anjuke.com/community/view/310286'
p1745
aS'https://ks.anjuke.com/community/view/310287'
p1746
aS'https://ks.anjuke.com/community/view/310280'
p1747
aS'https://ks.anjuke.com/community/view/310281'
p1748
aS'https://ks.anjuke.com/community/view/310282'
p1749
aS'https://ks.anjuke.com/community/view/310283'
p1750
aS'https://ks.anjuke.com/community/view/795416'
p1751
aS'https://ks.anjuke.com/community/view/609550'
p1752
aS'https://ks.anjuke.com/community/view/1031641'
p1753
aS'https://ks.anjuke.com/community/view/310525'
p1754
aS'https://ks.anjuke.com/community/view/376586'
p1755
aS'https://ks.anjuke.com/community/view/523291'
p1756
aS'https://ks.anjuke.com/community/view/793944'
p1757
aS'https://ks.anjuke.com/community/view/309823'
p1758
aS'https://ks.anjuke.com/community/view/557902'
p1759
aS'https://ks.anjuke.com/community/view/761517'
p1760
aS'https://ks.anjuke.com/community/view/761511'
p1761
aS'https://ks.anjuke.com/community/view/761513'
p1762
aS'https://ks.anjuke.com/community/view/412635'
p1763
aS'https://ks.anjuke.com/community/view/503968'
p1764
aS'https://ks.anjuke.com/community/view/569667'
p1765
aS'https://ks.anjuke.com/community/view/577828'
p1766
aS'https://ks.anjuke.com/community/view/469265'
p1767
aS'https://ks.anjuke.com/community/view/525427'
p1768
aS'https://ks.anjuke.com/community/view/581586'
p1769
aS'https://ks.anjuke.com/community/view/590822'
p1770
aS'https://ks.anjuke.com/community/view/518785'
p1771
aS'https://ks.anjuke.com/community/view/808039'
p1772
aS'https://ks.anjuke.com/community/view/310428'
p1773
aS'https://ks.anjuke.com/community/view/310429'
p1774
aS'https://ks.anjuke.com/community/view/655154'
p1775
aS'https://ks.anjuke.com/community/view/310420'
p1776
aS'https://ks.anjuke.com/community/view/310421'
p1777
aS'https://ks.anjuke.com/community/view/310422'
p1778
aS'https://ks.anjuke.com/community/view/310423'
p1779
aS'https://ks.anjuke.com/community/view/310424'
p1780
aS'https://ks.anjuke.com/community/view/310425'
p1781
aS'https://ks.anjuke.com/community/view/310426'
p1782
aS'https://ks.anjuke.com/community/view/500149'
p1783
aS'https://ks.anjuke.com/community/view/794736'
p1784
aS'https://ks.anjuke.com/community/view/419267'
p1785
aS'https://ks.anjuke.com/community/view/322780'
p1786
aS'https://ks.anjuke.com/community/view/322782'
p1787
aS'https://ks.anjuke.com/community/view/481069'
p1788
aS'https://ks.anjuke.com/community/view/372859'
p1789
aS'https://ks.anjuke.com/community/view/309790'
p1790
aS'https://ks.anjuke.com/community/view/400156'
p1791
aS'https://ks.anjuke.com/community/view/356835'
p1792
aS'https://ks.anjuke.com/community/view/779175'
p1793
aS'https://ks.anjuke.com/community/view/795469'
p1794
aS'https://ks.anjuke.com/community/view/641743'
p1795
aS'https://ks.anjuke.com/community/view/372851'
p1796
aS'https://ks.anjuke.com/community/view/372850'
p1797
aS'https://ks.anjuke.com/community/view/725156'
p1798
aS'https://ks.anjuke.com/community/view/372852'
p1799
aS'https://ks.anjuke.com/community/view/372855'
p1800
aS'https://ks.anjuke.com/community/view/372857'
p1801
aS'https://ks.anjuke.com/community/view/372856'
p1802
aS'https://ks.anjuke.com/community/view/599314'
p1803
aS'https://ks.anjuke.com/community/view/1031838'
p1804
aS'https://ks.anjuke.com/community/view/415683'
p1805
aS'https://ks.anjuke.com/community/view/309747'
p1806
aS'https://ks.anjuke.com/community/view/309746'
p1807
aS'https://ks.anjuke.com/community/view/317812'
p1808
aS'https://ks.anjuke.com/community/view/309744'
p1809
aS'https://ks.anjuke.com/community/view/309743'
p1810
aS'https://ks.anjuke.com/community/view/309742'
p1811
aS'https://ks.anjuke.com/community/view/309741'
p1812
aS'https://ks.anjuke.com/community/view/309740'
p1813
aS'https://ks.anjuke.com/community/view/309749'
p1814
aS'https://ks.anjuke.com/community/view/309748'
p1815
aS'https://ks.anjuke.com/community/view/1054094'
p1816
aS'https://ks.anjuke.com/community/view/650053'
p1817
aS'https://ks.anjuke.com/community/view/1031731'
p1818
aS'https://ks.anjuke.com/community/view/1031732'
p1819
aS'https://ks.anjuke.com/community/view/1031734'
p1820
aS'https://ks.anjuke.com/community/view/1031736'
p1821
aS'https://ks.anjuke.com/community/view/1031738'
p1822
aS'https://ks.anjuke.com/community/view/721092'
p1823
aS'https://ks.anjuke.com/community/view/421798'
p1824
aS'https://ks.anjuke.com/community/view/806464'
p1825
aS'https://ks.anjuke.com/community/view/470903'
p1826
aS'https://ks.anjuke.com/community/view/448206'
p1827
aS'https://ks.anjuke.com/community/view/658208'
p1828
aS'https://ks.anjuke.com/community/view/314954'
p1829
aS'https://ks.anjuke.com/community/view/571812'
p1830
aS'https://ks.anjuke.com/community/view/314956'
p1831
aS'https://ks.anjuke.com/community/view/1031649'
p1832
aS'https://ks.anjuke.com/community/view/1031645'
p1833
aS'https://ks.anjuke.com/community/view/1031646'
p1834
aS'https://ks.anjuke.com/community/view/332381'
p1835
aS'https://ks.anjuke.com/community/view/581372'
p1836
aS'https://ks.anjuke.com/community/view/1031642'
p1837
aS'https://ks.anjuke.com/community/view/571021'
p1838
aS'https://ks.anjuke.com/community/view/566974'
p1839
aS'https://ks.anjuke.com/community/view/457091'
p1840
aS'https://ks.anjuke.com/community/view/1031601'
p1841
aS'https://ks.anjuke.com/community/view/448842'
p1842
aS'https://ks.anjuke.com/community/view/309918'
p1843
aS'https://ks.anjuke.com/community/view/309919'
p1844
aS'https://ks.anjuke.com/community/view/458659'
p1845
aS'https://ks.anjuke.com/community/view/309912'
p1846
aS'https://ks.anjuke.com/community/view/786557'
p1847
aS'https://ks.anjuke.com/community/view/786556'
p1848
aS'https://ks.anjuke.com/community/view/786555'
p1849
aS'https://ks.anjuke.com/community/view/309913'
p1850
aS'https://ks.anjuke.com/community/view/786559'
p1851
aS'https://ks.anjuke.com/community/view/786558'
p1852
aS'https://ks.anjuke.com/community/view/310093'
p1853
aS'https://ks.anjuke.com/community/view/786315'
p1854
aS'https://ks.anjuke.com/community/view/786314'
p1855
aS'https://ks.anjuke.com/community/view/786316'
p1856
aS'https://ks.anjuke.com/community/view/310095'
p1857
aS'https://ks.anjuke.com/community/view/309917'
p1858
aS'https://ks.anjuke.com/community/view/310097'
p1859
aS'https://ks.anjuke.com/community/view/487094'
p1860
aS'https://ks.anjuke.com/community/view/310096'
p1861
aS'https://ks.anjuke.com/community/view/796134'
p1862
aS'https://ks.anjuke.com/community/view/357569'
p1863
aS'https://ks.anjuke.com/community/view/1052922'
p1864
aS'https://ks.anjuke.com/community/view/1033248'
p1865
aS'https://ks.anjuke.com/community/view/1033249'
p1866
aS'https://ks.anjuke.com/community/view/1033246'
p1867
aS'https://ks.anjuke.com/community/view/1033247'
p1868
aS'https://ks.anjuke.com/community/view/1033244'
p1869
aS'https://ks.anjuke.com/community/view/1033245'
p1870
aS'https://ks.anjuke.com/community/view/1033242'
p1871
aS'https://ks.anjuke.com/community/view/1033243'
p1872
aS'https://ks.anjuke.com/community/view/1033240'
p1873
aS'https://ks.anjuke.com/community/view/1033241'
p1874
aS'https://ks.anjuke.com/community/view/310120'
p1875
aS'https://ks.anjuke.com/community/view/567763'
p1876
aS'https://ks.anjuke.com/community/view/309808'
p1877
aS'https://ks.anjuke.com/community/view/309804'
p1878
aS'https://ks.anjuke.com/community/view/309805'
p1879
aS'https://ks.anjuke.com/community/view/309806'
p1880
aS'https://ks.anjuke.com/community/view/309807'
p1881
aS'https://ks.anjuke.com/community/view/309800'
p1882
aS'https://ks.anjuke.com/community/view/309801'
p1883
aS'https://ks.anjuke.com/community/view/309802'
p1884
aS'https://ks.anjuke.com/community/view/309803'
p1885
aS'https://ks.anjuke.com/community/view/309931'
p1886
aS'https://ks.anjuke.com/community/view/376750'
p1887
aS'https://ks.anjuke.com/community/view/309933'
p1888
aS'https://ks.anjuke.com/community/view/309934'
p1889
aS'https://ks.anjuke.com/community/view/309935'
p1890
aS'https://ks.anjuke.com/community/view/309936'
p1891
aS'https://ks.anjuke.com/community/view/309937'
p1892
aS'https://ks.anjuke.com/community/view/309938'
p1893
aS'https://ks.anjuke.com/community/view/309939'
p1894
aS'https://ks.anjuke.com/community/view/800033'
p1895
aS'https://ks.anjuke.com/community/view/1031948'
p1896
aS'https://ks.anjuke.com/community/view/407367'
p1897
aS'https://ks.anjuke.com/community/view/1035335'
p1898
aS'https://ks.anjuke.com/community/view/654993'
p1899
aS'https://ks.anjuke.com/community/view/310380'
p1900
aS'https://ks.anjuke.com/community/view/566363'
p1901
aS'https://ks.anjuke.com/community/view/780253'
p1902
aS'https://ks.anjuke.com/community/view/412640'
p1903
aS'https://ks.anjuke.com/community/view/364540'
p1904
aS'https://ks.anjuke.com/community/view/511049'
p1905
aS'https://ks.anjuke.com/community/view/581912'
p1906
aS'https://ks.anjuke.com/community/view/637218'
p1907
aS'https://ks.anjuke.com/community/view/1035412'
p1908
aS'https://ks.anjuke.com/community/view/1060403'
p1909
aS'https://ks.anjuke.com/community/view/336890'
p1910
aS'https://ks.anjuke.com/community/view/310258'
p1911
aS'https://ks.anjuke.com/community/view/608123'
p1912
aS'https://ks.anjuke.com/community/view/606933'
p1913
aS'https://ks.anjuke.com/community/view/765844'
p1914
aS'https://ks.anjuke.com/community/view/310253'
p1915
aS'https://ks.anjuke.com/community/view/310252'
p1916
aS'https://ks.anjuke.com/community/view/310251'
p1917
aS'https://ks.anjuke.com/community/view/310250'
p1918
aS'https://ks.anjuke.com/community/view/310257'
p1919
aS'https://ks.anjuke.com/community/view/310256'
p1920
aS'https://ks.anjuke.com/community/view/310255'
p1921
aS'https://ks.anjuke.com/community/view/310254'
p1922
aS'https://ks.anjuke.com/community/view/1035366'
p1923
aS'https://ks.anjuke.com/community/view/310419'
p1924
aS'https://ks.anjuke.com/community/view/310418'
p1925
aS'https://ks.anjuke.com/community/view/310415'
p1926
aS'https://ks.anjuke.com/community/view/310414'
p1927
aS'https://ks.anjuke.com/community/view/310417'
p1928
aS'https://ks.anjuke.com/community/view/310416'
p1929
aS'https://ks.anjuke.com/community/view/310411'
p1930
aS'https://ks.anjuke.com/community/view/310410'
p1931
aS'https://ks.anjuke.com/community/view/310413'
p1932
aS'https://ks.anjuke.com/community/view/310412'
p1933
aS'https://ks.anjuke.com/community/view/1031680'
p1934
aS'https://ks.anjuke.com/community/view/1031681'
p1935
aS'https://ks.anjuke.com/community/view/614326'
p1936
aS'https://ks.anjuke.com/community/view/1031682'
p1937
aS'https://ks.anjuke.com/community/view/1035365'
p1938
aS'https://ks.anjuke.com/community/view/1031683'
p1939
aS'https://ks.anjuke.com/community/view/1031684'
p1940
aS'https://ks.anjuke.com/community/view/309720'
p1941
aS'https://ks.anjuke.com/community/view/1031686'
p1942
aS'https://ks.anjuke.com/community/view/508542'
p1943
aS'https://ks.anjuke.com/community/view/1060401'
p1944
aS'https://ks.anjuke.com/community/view/1035396'
p1945
aS'https://ks.anjuke.com/community/view/1035397'
p1946
aS'https://ks.anjuke.com/community/view/568320'
p1947
aS'https://ks.anjuke.com/community/view/1035395'
p1948
aS'https://ks.anjuke.com/community/view/1035392'
p1949
aS'https://ks.anjuke.com/community/view/1060406'
p1950
aS'https://ks.anjuke.com/community/view/1057192'
p1951
aS'https://ks.anjuke.com/community/view/1035391'
p1952
aS'https://ks.anjuke.com/community/view/372846'
p1953
aS'https://ks.anjuke.com/community/view/372847'
p1954
aS'https://ks.anjuke.com/community/view/795476'
p1955
aS'https://ks.anjuke.com/community/view/786554'
p1956
aS'https://ks.anjuke.com/community/view/795470'
p1957
aS'https://ks.anjuke.com/community/view/372840'
p1958
aS'https://ks.anjuke.com/community/view/372841'
p1959
aS'https://ks.anjuke.com/community/view/1035406'
p1960
aS'https://ks.anjuke.com/community/view/1035407'
p1961
aS'https://ks.anjuke.com/community/view/1035404'
p1962
aS'https://ks.anjuke.com/community/view/318294'
p1963
aS'https://ks.anjuke.com/community/view/1035403'
p1964
aS'https://ks.anjuke.com/community/view/1035400'
p1965
aS'https://ks.anjuke.com/community/view/1035401'
p1966
aS'https://ks.anjuke.com/community/view/800564'
p1967
aS'https://ks.anjuke.com/community/view/1035408'
p1968
aS'https://ks.anjuke.com/community/view/1035409'
p1969
aS'https://ks.anjuke.com/community/view/309754'
p1970
aS'https://ks.anjuke.com/community/view/309755'
p1971
aS'https://ks.anjuke.com/community/view/309756'
p1972
aS'https://ks.anjuke.com/community/view/310377'
p1973
aS'https://ks.anjuke.com/community/view/309750'
p1974
aS'https://ks.anjuke.com/community/view/309751'
p1975
aS'https://ks.anjuke.com/community/view/309752'
p1976
aS'https://ks.anjuke.com/community/view/309753'
p1977
aS'https://ks.anjuke.com/community/view/309758'
p1978
aS'https://ks.anjuke.com/community/view/309759'
p1979
aS'https://ks.anjuke.com/community/view/310371'
p1980
aS'https://ks.anjuke.com/community/view/537132'
p1981
aS'https://ks.anjuke.com/community/view/1031940'
p1982
aS'https://ks.anjuke.com/community/view/314896'
p1983
aS'https://ks.anjuke.com/community/view/314893'
p1984
aS'https://ks.anjuke.com/community/view/655584'
p1985
aS'https://ks.anjuke.com/community/view/314898'
p1986
aS'https://ks.anjuke.com/community/view/1031723'
p1987
aS'https://ks.anjuke.com/community/view/1084644'
p1988
aS'https://ks.anjuke.com/community/view/1031721'
p1989
aS'https://ks.anjuke.com/community/view/1031727'
p1990
aS'https://ks.anjuke.com/community/view/1031726'
p1991
aS'https://ks.anjuke.com/community/view/1031725'
p1992
aS'https://ks.anjuke.com/community/view/1031724'
p1993
aS'https://ks.anjuke.com/community/view/1031729'
p1994
aS'https://ks.anjuke.com/community/view/1031728'
p1995
aS'https://ks.anjuke.com/community/view/310277'
p1996
aS'https://ks.anjuke.com/community/view/551097'
p1997
aS'https://ks.anjuke.com/community/view/1035378'
p1998
aS'https://ks.anjuke.com/community/view/1035379'
p1999
aS'https://ks.anjuke.com/community/view/1035374'
p2000
aS'https://ks.anjuke.com/community/view/1035375'
p2001
aS'https://ks.anjuke.com/community/view/1035376'
p2002
aS'https://ks.anjuke.com/community/view/1035377'
p2003
aS'https://ks.anjuke.com/community/view/1035370'
p2004
aS'https://ks.anjuke.com/community/view/1035371'
p2005
aS'https://ks.anjuke.com/community/view/1035372'
p2006
aS'https://ks.anjuke.com/community/view/1035373'
p2007
aS'https://ks.anjuke.com/community/view/374195'
p2008
aS'https://ks.anjuke.com/community/view/614474'
p2009
aS'https://ks.anjuke.com/community/view/1031615'
p2010
aS'https://ks.anjuke.com/community/view/314960'
p2011
aS'https://ks.anjuke.com/community/view/314963'
p2012
aS'https://ks.anjuke.com/community/view/310475'
p2013
aS'https://ks.anjuke.com/community/view/314966'
p2014
aS'https://ks.anjuke.com/community/view/607849'
p2015
aS'https://ks.anjuke.com/community/view/319721'
p2016
aS'https://ks.anjuke.com/community/view/1031659'
p2017
aS'https://ks.anjuke.com/community/view/1031658'
p2018
aS'https://ks.anjuke.com/community/view/1031657'
p2019
aS'https://ks.anjuke.com/community/view/502604'
p2020
aS'https://ks.anjuke.com/community/view/1031655'
p2021
aS'https://ks.anjuke.com/community/view/1031653'
p2022
aS'https://ks.anjuke.com/community/view/1031750'
p2023
aS'https://ks.anjuke.com/community/view/1031651'
p2024
aS'https://ks.anjuke.com/community/view/1031751'
p2025
aS'https://ks.anjuke.com/community/view/1031757'
p2026
aS'https://ks.anjuke.com/community/view/1035237'
p2027
aS'https://ks.anjuke.com/community/view/1031755'
p2028
aS'https://ks.anjuke.com/community/view/378292'
p2029
aS'https://ks.anjuke.com/community/view/316013'
p2030
aS'https://ks.anjuke.com/community/view/316012'
p2031
aS'https://ks.anjuke.com/community/view/583576'
p2032
aS'https://ks.anjuke.com/community/view/635217'
p2033
aS'https://ks.anjuke.com/community/view/596521'
p2034
aS'https://ks.anjuke.com/community/view/479740'
p2035
aS'https://ks.anjuke.com/community/view/496641'
p2036
aS'https://ks.anjuke.com/community/view/596522'
p2037
aS'https://ks.anjuke.com/community/view/412685'
p2038
aS'https://ks.anjuke.com/community/view/472067'
p2039
aS'https://ks.anjuke.com/community/view/452706'
p2040
aS'https://ks.anjuke.com/community/view/537918'
p2041
aS'https://ks.anjuke.com/community/view/401564'
p2042
aS'https://ks.anjuke.com/community/view/793517'
p2043
aS'https://ks.anjuke.com/community/view/728615'
p2044
aS'https://ks.anjuke.com/community/view/800812'
p2045
aS'https://ks.anjuke.com/community/view/418016'
p2046
aS'https://ks.anjuke.com/community/view/650778'
p2047
aS'https://ks.anjuke.com/community/view/1031677'
p2048
aS'https://ks.anjuke.com/community/view/587295'
p2049
aS'https://ks.anjuke.com/community/view/325208'
p2050
aS'https://ks.anjuke.com/community/view/793464'
p2051
aS'https://ks.anjuke.com/community/view/368664'
p2052
aS'https://ks.anjuke.com/community/view/1047111'
p2053
aS'https://ks.anjuke.com/community/view/1047112'
p2054
aS'https://ks.anjuke.com/community/view/628144'
p2055
aS'https://ks.anjuke.com/community/view/486954'
p2056
aS'https://ks.anjuke.com/community/view/995242'
p2057
aS'https://ks.anjuke.com/community/view/1031671'
p2058
aS'https://ks.anjuke.com/community/view/1035389'
p2059
aS'https://ks.anjuke.com/community/view/315945'
p2060
aS'https://ks.anjuke.com/community/view/309831'
p2061
aS'https://ks.anjuke.com/community/view/309830'
p2062
aS'https://ks.anjuke.com/community/view/309833'
p2063
aS'https://ks.anjuke.com/community/view/309832'
p2064
aS'https://ks.anjuke.com/community/view/309835'
p2065
aS'https://ks.anjuke.com/community/view/309834'
p2066
aS'https://ks.anjuke.com/community/view/309837'
p2067
aS'https://ks.anjuke.com/community/view/309836'
p2068
aS'https://ks.anjuke.com/community/view/309839'
p2069
aS'https://ks.anjuke.com/community/view/309838'
p2070
aS'https://ks.anjuke.com/community/view/801961'
p2071
aS'https://ks.anjuke.com/community/view/309905'
p2072
aS'https://ks.anjuke.com/community/view/309904'
p2073
aS'https://ks.anjuke.com/community/view/309907'
p2074
aS'https://ks.anjuke.com/community/view/657986'
p2075
aS'https://ks.anjuke.com/community/view/1031959'
p2076
aS'https://ks.anjuke.com/community/view/309900'
p2077
aS'https://ks.anjuke.com/community/view/309903'
p2078
aS'https://ks.anjuke.com/community/view/309902'
p2079
aS'https://ks.anjuke.com/community/view/503801'
p2080
aS'https://ks.anjuke.com/community/view/309909'
p2081
aS'https://ks.anjuke.com/community/view/1049685'
p2082
aS'https://ks.anjuke.com/community/view/406487'
p2083
aS'https://ks.anjuke.com/community/view/1031673'
p2084
aS'https://ks.anjuke.com/community/view/786704'
p2085
aS'https://ks.anjuke.com/community/view/340109'
p2086
aS'https://ks.anjuke.com/community/view/521114'
p2087
aS'https://ks.anjuke.com/community/view/785309'
p2088
aS'https://ks.anjuke.com/community/view/785308'
p2089
aS'https://ks.anjuke.com/community/view/375878'
p2090
aS'https://ks.anjuke.com/community/view/549110'
p2091
aS'https://ks.anjuke.com/community/view/452298'
p2092
aS'https://ks.anjuke.com/community/view/310048'
p2093
aS'https://ks.anjuke.com/community/view/656582'
p2094
aS'https://ks.anjuke.com/community/view/656583'
p2095
aS'https://ks.anjuke.com/community/view/310398'
p2096
aS'https://ks.anjuke.com/community/view/310399'
p2097
aS'https://ks.anjuke.com/community/view/656586'
p2098
aS'https://ks.anjuke.com/community/view/310396'
p2099
aS'https://ks.anjuke.com/community/view/310397'
p2100
aS'https://ks.anjuke.com/community/view/609998'
p2101
aS'https://ks.anjuke.com/community/view/310248'
p2102
aS'https://ks.anjuke.com/community/view/310249'
p2103
aS'https://ks.anjuke.com/community/view/400884'
p2104
aS'https://ks.anjuke.com/community/view/310240'
p2105
aS'https://ks.anjuke.com/community/view/310241'
p2106
aS'https://ks.anjuke.com/community/view/310242'
p2107
aS'https://ks.anjuke.com/community/view/310243'
p2108
aS'https://ks.anjuke.com/community/view/548229'
p2109
aS'https://ks.anjuke.com/community/view/310245'
p2110
aS'https://ks.anjuke.com/community/view/310246'
p2111
aS'https://ks.anjuke.com/community/view/552817'
p2112
aS'https://ks.anjuke.com/community/view/310402'
p2113
aS'https://ks.anjuke.com/community/view/310403'
p2114
aS'https://ks.anjuke.com/community/view/310400'
p2115
aS'https://ks.anjuke.com/community/view/310401'
p2116
aS'https://ks.anjuke.com/community/view/310406'
p2117
aS'https://ks.anjuke.com/community/view/310407'
p2118
aS'https://ks.anjuke.com/community/view/310404'
p2119
aS'https://ks.anjuke.com/community/view/310405'
p2120
aS'https://ks.anjuke.com/community/view/310408'
p2121
aS'https://ks.anjuke.com/community/view/310409'
p2122
aS'https://ks.anjuke.com/community/view/489205'
p2123
aS'https://ks.anjuke.com/community/view/615247'
p2124
aS'https://ks.anjuke.com/community/view/1049776'
p2125
aS'https://ks.anjuke.com/community/view/495862'
p2126
aS'https://ks.anjuke.com/community/view/309697'
p2127
aS'https://ks.anjuke.com/community/view/309699'
p2128
aS'https://ks.anjuke.com/community/view/309698'
p2129
aS'https://ks.anjuke.com/community/view/318357'
p2130
aS'https://ks.anjuke.com/community/view/635913'
p2131
aS'https://ks.anjuke.com/community/view/1049775'
p2132
aS'https://ks.anjuke.com/community/view/780352'
p2133
aS'https://ks.anjuke.com/community/view/793981'
p2134
aS'https://ks.anjuke.com/community/view/309948'
p2135
aS'https://ks.anjuke.com/community/view/1035381'
p2136
aS'https://ks.anjuke.com/community/view/1035380'
p2137
aS'https://ks.anjuke.com/community/view/1035383'
p2138
aS'https://ks.anjuke.com/community/view/1035382'
p2139
aS'https://ks.anjuke.com/community/view/395346'
p2140
aS'https://ks.anjuke.com/community/view/1035384'
p2141
aS'https://ks.anjuke.com/community/view/1035387'
p2142
aS'https://ks.anjuke.com/community/view/1035386'
p2143
aS'https://ks.anjuke.com/community/view/482888'
p2144
aS'https://ks.anjuke.com/community/view/1035388'
p2145
aS'https://ks.anjuke.com/community/view/1035411'
p2146
aS'https://ks.anjuke.com/community/view/1035410'
p2147
aS'https://ks.anjuke.com/community/view/1035413'
p2148
aS'https://ks.anjuke.com/community/view/547289'
p2149
aS'https://ks.anjuke.com/community/view/1035415'
p2150
aS'https://ks.anjuke.com/community/view/1035414'
p2151
aS'https://ks.anjuke.com/community/view/1035417'
p2152
aS'https://ks.anjuke.com/community/view/1035416'
p2153
aS'https://ks.anjuke.com/community/view/1035419'
p2154
aS'https://ks.anjuke.com/community/view/1035418'
p2155
aS'https://ks.anjuke.com/community/view/800575'
p2156
aS'https://ks.anjuke.com/community/view/800570'
p2157
aS'https://ks.anjuke.com/community/view/309769'
p2158
aS'https://ks.anjuke.com/community/view/309768'
p2159
aS'https://ks.anjuke.com/community/view/309761'
p2160
aS'https://ks.anjuke.com/community/view/309760'
p2161
aS'https://ks.anjuke.com/community/view/309763'
p2162
aS'https://ks.anjuke.com/community/view/1060836'
p2163
aS'https://ks.anjuke.com/community/view/309765'
p2164
aS'https://ks.anjuke.com/community/view/309764'
p2165
aS'https://ks.anjuke.com/community/view/309767'
p2166
aS'https://ks.anjuke.com/community/view/309766'
p2167
aS'https://ks.anjuke.com/community/view/805455'
p2168
aS'https://ks.anjuke.com/community/view/426561'
p2169
aS'https://ks.anjuke.com/community/view/790496'
p2170
aS'https://ks.anjuke.com/community/view/1049706'
p2171
aS'https://ks.anjuke.com/community/view/1049707'
p2172
aS'https://ks.anjuke.com/community/view/1049704'
p2173
aS'https://ks.anjuke.com/community/view/332702'
p2174
aS'https://ks.anjuke.com/community/view/1049702'
p2175
aS'https://ks.anjuke.com/community/view/1049703'
p2176
aS'https://ks.anjuke.com/community/view/1049700'
p2177
aS'https://ks.anjuke.com/community/view/620041'
p2178
aS'https://ks.anjuke.com/community/view/1031716'
p2179
aS'https://ks.anjuke.com/community/view/310481'
p2180
aS'https://ks.anjuke.com/community/view/1031715'
p2181
aS'https://ks.anjuke.com/community/view/653632'
p2182
aS'https://ks.anjuke.com/community/view/1049708'
p2183
aS'https://ks.anjuke.com/community/view/1031711'
p2184
aS'https://ks.anjuke.com/community/view/1031594'
p2185
aS'https://ks.anjuke.com/community/view/807929'
p2186
aS'https://ks.anjuke.com/community/view/591154'
p2187
aS'https://ks.anjuke.com/community/view/614681'
p2188
aS'https://ks.anjuke.com/community/view/1035369'
p2189
aS'https://ks.anjuke.com/community/view/1035368'
p2190
aS'https://ks.anjuke.com/community/view/1035367'
p2191
aS'https://ks.anjuke.com/community/view/630891'
p2192
aS'https://ks.anjuke.com/community/view/630892'
p2193
aS'https://ks.anjuke.com/community/view/630893'
p2194
aS'https://ks.anjuke.com/community/view/1049771'
p2195
aS'https://ks.anjuke.com/community/view/1035362'
p2196
aS'https://ks.anjuke.com/community/view/1035361'
p2197
aS'https://ks.anjuke.com/community/view/1035360'
p2198
aS'https://ks.anjuke.com/community/view/314888'
p2199
aS'https://ks.anjuke.com/community/view/523930'
p2200
aS'https://ks.anjuke.com/community/view/314881'
p2201
aS'https://ks.anjuke.com/community/view/403869'
p2202
aS'https://ks.anjuke.com/community/view/1049770'
p2203
aS'https://ks.anjuke.com/community/view/1031852'
p2204
aS'https://ks.anjuke.com/community/view/414148'
p2205
aS'https://ks.anjuke.com/community/view/1031596'
p2206
aS'https://ks.anjuke.com/community/view/1031886'
p2207
aS'https://ks.anjuke.com/community/view/1031884'
p2208
aS'https://ks.anjuke.com/community/view/321823'
p2209
aS'https://ks.anjuke.com/community/view/1031882'
p2210
aS'https://ks.anjuke.com/community/view/1031883'
p2211
aS'https://ks.anjuke.com/community/view/572730'
p2212
aS'https://ks.anjuke.com/community/view/1031881'
p2213
aS'https://ks.anjuke.com/community/view/1031662'
p2214
aS'https://ks.anjuke.com/community/view/1031663'
p2215
aS'https://ks.anjuke.com/community/view/1031660'
p2216
aS'https://ks.anjuke.com/community/view/1031661'
p2217
aS'https://ks.anjuke.com/community/view/1031666'
p2218
aS'https://ks.anjuke.com/community/view/1031667'
p2219
aS'https://ks.anjuke.com/community/view/1031888'
p2220
aS'https://ks.anjuke.com/community/view/1031665'
p2221
aS'https://ks.anjuke.com/community/view/404072'
p2222
aS'https://ks.anjuke.com/community/view/404077'
p2223
aS'https://ks.anjuke.com/community/view/551936'
p2224
aS'https://ks.anjuke.com/community/view/404075'
p2225
aS'https://ks.anjuke.com/community/view/378282'
p2226
aS'https://ks.anjuke.com/community/view/379844'
p2227
aS'https://ks.anjuke.com/community/view/619830'
p2228
aS'https://ks.anjuke.com/community/view/1049678'
p2229
aS'https://ks.anjuke.com/community/view/1049679'
p2230
aS'https://ks.anjuke.com/community/view/1049676'
p2231
aS'https://ks.anjuke.com/community/view/529665'
p2232
aS'https://ks.anjuke.com/community/view/1049674'
p2233
aS'https://ks.anjuke.com/community/view/1049675'
p2234
aS'https://ks.anjuke.com/community/view/1049672'
p2235
aS'https://ks.anjuke.com/community/view/1049673'
p2236
aS'https://ks.anjuke.com/community/view/1049671'
p2237
aS'https://ks.anjuke.com/community/view/413799'
p2238
aS'https://ks.anjuke.com/community/view/454271'
p2239
aS'https://ks.anjuke.com/community/view/1035394'
p2240
aS'https://ks.anjuke.com/community/view/618305'
p2241
aS'https://ks.anjuke.com/community/view/543275'
p2242
aS'https://ks.anjuke.com/community/view/310109'
p2243
aS'https://ks.anjuke.com/community/view/372058'
p2244
aS'https://ks.anjuke.com/community/view/1031868'
p2245
aS'https://ks.anjuke.com/community/view/1031869'
p2246
aS'https://ks.anjuke.com/community/view/1031864'
p2247
aS'https://ks.anjuke.com/community/view/1031865'
p2248
aS'https://ks.anjuke.com/community/view/617338'
p2249
aS'https://ks.anjuke.com/community/view/1031867'
p2250
aS'https://ks.anjuke.com/community/view/1031860'
p2251
aS'https://ks.anjuke.com/community/view/1031861'
p2252
aS'https://ks.anjuke.com/community/view/1031862'
p2253
aS'https://ks.anjuke.com/community/view/1031863'
p2254
aS'https://ks.anjuke.com/community/view/642055'
p2255
aS'https://ks.anjuke.com/community/view/786575'
p2256
aS'https://ks.anjuke.com/community/view/786574'
p2257
aS'https://ks.anjuke.com/community/view/786577'
p2258
aS'https://ks.anjuke.com/community/view/786576'
p2259
aS'https://ks.anjuke.com/community/view/786571'
p2260
aS'https://ks.anjuke.com/community/view/786570'
p2261
aS'https://ks.anjuke.com/community/view/786573'
p2262
aS'https://ks.anjuke.com/community/view/786572'
p2263
aS'https://ks.anjuke.com/community/view/517518'
p2264
aS'https://ks.anjuke.com/community/view/786579'
p2265
aS'https://ks.anjuke.com/community/view/786578'
p2266
aS'https://ks.anjuke.com/community/view/1035393'
p2267
aS'https://ks.anjuke.com/community/view/310244'
p2268
aS'https://ks.anjuke.com/community/view/572204'
p2269
aS'https://ks.anjuke.com/community/view/375701'
p2270
aS'https://ks.anjuke.com/community/view/1031799'
p2271
aS'https://ks.anjuke.com/community/view/405297'
p2272
aS'https://ks.anjuke.com/community/view/786705'
p2273
aS'https://ks.anjuke.com/community/view/1035288'
p2274
aS'https://ks.anjuke.com/community/view/657622'
p2275
aS'https://ks.anjuke.com/community/view/310225'
p2276
aS'https://ks.anjuke.com/community/view/786689'
p2277
aS'https://ks.anjuke.com/community/view/1035289'
p2278
aS'https://ks.anjuke.com/community/view/786687'
p2279
aS'https://ks.anjuke.com/community/view/786686'
p2280
aS'https://ks.anjuke.com/community/view/786685'
p2281
aS'https://ks.anjuke.com/community/view/786684'
p2282
aS'https://ks.anjuke.com/community/view/786683'
p2283
aS'https://ks.anjuke.com/community/view/786682'
p2284
aS'https://ks.anjuke.com/community/view/786681'
p2285
aS'https://ks.anjuke.com/community/view/786680'
p2286
aS'https://ks.anjuke.com/community/view/1031668'
p2287
aS'https://ks.anjuke.com/community/view/1035390'
p2288
aS'https://ks.anjuke.com/community/view/786377'
p2289
aS'https://ks.anjuke.com/community/view/378682'
p2290
aS'https://ks.anjuke.com/community/view/786375'
p2291
aS'https://ks.anjuke.com/community/view/316223'
p2292
aS'https://ks.anjuke.com/community/view/1049717'
p2293
aS'https://ks.anjuke.com/community/view/659279'
p2294
aS'https://ks.anjuke.com/community/view/412449'
p2295
aS'https://ks.anjuke.com/community/view/1031669'
p2296
aS'https://ks.anjuke.com/community/view/786752'
p2297
aS'https://ks.anjuke.com/community/view/309826'
p2298
aS'https://ks.anjuke.com/community/view/309827'
p2299
aS'https://ks.anjuke.com/community/view/309824'
p2300
aS'https://ks.anjuke.com/community/view/309825'
p2301
aS'https://ks.anjuke.com/community/view/309822'
p2302
aS'https://ks.anjuke.com/community/view/348969'
p2303
aS'https://ks.anjuke.com/community/view/309820'
p2304
aS'https://ks.anjuke.com/community/view/309821'
p2305
aS'https://ks.anjuke.com/community/view/309828'
p2306
aS'https://ks.anjuke.com/community/view/309829'
p2307
aS'https://ks.anjuke.com/community/view/1035283'
p2308
aS'https://ks.anjuke.com/community/view/324010'
p2309
aS'https://ks.anjuke.com/community/view/1031705'
p2310
aS'https://ks.anjuke.com/community/view/1031707'
p2311
aS'https://ks.anjuke.com/community/view/372861'
p2312
aS'https://ks.anjuke.com/community/view/490605'
p2313
aS'https://ks.anjuke.com/community/view/490604'
p2314
aS'https://ks.anjuke.com/community/view/310099'
p2315
aS'https://ks.anjuke.com/community/view/310098'
p2316
aS'https://ks.anjuke.com/community/view/412461'
p2317
aS'https://ks.anjuke.com/community/view/599192'
p2318
aS'https://ks.anjuke.com/community/view/310091'
p2319
aS'https://ks.anjuke.com/community/view/372819'
p2320
aS'https://ks.anjuke.com/community/view/309910'
p2321
aS'https://ks.anjuke.com/community/view/310092'
p2322
aS'https://ks.anjuke.com/community/view/309916'
p2323
aS'https://ks.anjuke.com/community/view/310094'
p2324
aS'https://ks.anjuke.com/community/view/309914'
p2325
aS'https://ks.anjuke.com/community/view/309915'
p2326
aS'https://ks.anjuke.com/community/view/816006'
p2327
aS'https://ks.anjuke.com/community/view/797400'
p2328
aS'https://ks.anjuke.com/community/view/372810'
p2329
aS'https://ks.anjuke.com/community/view/310279'
p2330
aS'https://ks.anjuke.com/community/view/310278'
p2331
aS'https://ks.anjuke.com/community/view/786587'
p2332
aS'https://ks.anjuke.com/community/view/310275'
p2333
aS'https://ks.anjuke.com/community/view/310274'
p2334
aS'https://ks.anjuke.com/community/view/796874'
p2335
aS'https://ks.anjuke.com/community/view/310276'
p2336
aS'https://ks.anjuke.com/community/view/310271'
p2337
aS'https://ks.anjuke.com/community/view/310270'
p2338
aS'https://ks.anjuke.com/community/view/310272'
p2339
aS'https://ks.anjuke.com/community/view/310477'
p2340
aS'https://ks.anjuke.com/community/view/310476'
p2341
aS'https://ks.anjuke.com/community/view/572020'
p2342
aS'https://ks.anjuke.com/community/view/310474'
p2343
aS'https://ks.anjuke.com/community/view/310473'
p2344
aS'https://ks.anjuke.com/community/view/310472'
p2345
aS'https://ks.anjuke.com/community/view/310471'
p2346
aS'https://ks.anjuke.com/community/view/310470'
p2347
aS'https://ks.anjuke.com/community/view/786609'
p2348
aS'https://ks.anjuke.com/community/view/310479'
p2349
aS'https://ks.anjuke.com/community/view/310478'
p2350
aS'https://ks.anjuke.com/community/view/728832'
p2351
aS'https://ks.anjuke.com/community/view/880030'
p2352
aS'https://ks.anjuke.com/community/view/320221'
p2353
aS'https://ks.anjuke.com/community/view/805204'
p2354
aS'https://ks.anjuke.com/community/view/1049764'
p2355
aS'https://ks.anjuke.com/community/view/786608'
p2356
aS'https://ks.anjuke.com/community/view/1072186'
p2357
aS'https://ks.anjuke.com/community/view/1072187'
p2358
aS'https://ks.anjuke.com/community/view/1072184'
p2359
aS'https://ks.anjuke.com/community/view/1072185'
p2360
aS'https://ks.anjuke.com/community/view/1072182'
p2361
aS'https://ks.anjuke.com/community/view/1072183'
p2362
aS'https://ks.anjuke.com/community/view/1072180'
p2363
aS'https://ks.anjuke.com/community/view/1072181'
p2364
aS'https://ks.anjuke.com/community/view/1072188'
p2365
aS'https://ks.anjuke.com/community/view/1035398'
p2366
aS'https://ks.anjuke.com/community/view/1049765'
p2367
aS'https://ks.anjuke.com/community/view/363486'
p2368
aS'https://ks.anjuke.com/community/view/800585'
p2369
aS'https://ks.anjuke.com/community/view/1035355'
p2370
aS'https://ks.anjuke.com/community/view/1049766'
p2371
aS'https://ks.anjuke.com/community/view/309778'
p2372
aS'https://ks.anjuke.com/community/view/309776'
p2373
aS'https://ks.anjuke.com/community/view/309777'
p2374
aS'https://ks.anjuke.com/community/view/309774'
p2375
aS'https://ks.anjuke.com/community/view/309775'
p2376
aS'https://ks.anjuke.com/community/view/309772'
p2377
aS'https://ks.anjuke.com/community/view/309773'
p2378
aS'https://ks.anjuke.com/community/view/309770'
p2379
aS'https://ks.anjuke.com/community/view/309771'
p2380
aS'https://ks.anjuke.com/community/view/786622'
p2381
aS'https://ks.anjuke.com/community/view/380125'
p2382
aS'https://ks.anjuke.com/community/view/404086'
p2383
aS'https://ks.anjuke.com/community/view/1031708'
p2384
aS'https://ks.anjuke.com/community/view/1049713'
p2385
aS'https://ks.anjuke.com/community/view/1049712'
p2386
aS'https://ks.anjuke.com/community/view/1049715'
p2387
aS'https://ks.anjuke.com/community/view/1049714'
p2388
aS'https://ks.anjuke.com/community/view/404080'
p2389
aS'https://ks.anjuke.com/community/view/1049716'
p2390
aS'https://ks.anjuke.com/community/view/1031701'
p2391
aS'https://ks.anjuke.com/community/view/1035281'
p2392
aS'https://ks.anjuke.com/community/view/1035282'
p2393
aS'https://ks.anjuke.com/community/view/1031702'
p2394
aS'https://ks.anjuke.com/community/view/1035284'
p2395
aS'https://ks.anjuke.com/community/view/1035285'
p2396
aS'https://ks.anjuke.com/community/view/1035286'
p2397
aS'https://ks.anjuke.com/community/view/1035287'
p2398
aS'https://ks.anjuke.com/community/view/1072168'
p2399
aS'https://ks.anjuke.com/community/view/1072169'
p2400
aS'https://ks.anjuke.com/community/view/309702'
p2401
aS'https://ks.anjuke.com/community/view/1072164'
p2402
aS'https://ks.anjuke.com/community/view/1072165'
p2403
aS'https://ks.anjuke.com/community/view/1072166'
p2404
aS'https://ks.anjuke.com/community/view/1072167'
p2405
aS'https://ks.anjuke.com/community/view/1072160'
p2406
aS'https://ks.anjuke.com/community/view/1072161'
p2407
aS'https://ks.anjuke.com/community/view/1072162'
p2408
aS'https://ks.anjuke.com/community/view/1072163'
p2409
aS'https://ks.anjuke.com/community/view/1035358'
p2410
aS'https://ks.anjuke.com/community/view/1035359'
p2411
aS'https://ks.anjuke.com/community/view/1035352'
p2412
aS'https://ks.anjuke.com/community/view/1035353'
p2413
aS'https://ks.anjuke.com/community/view/1035350'
p2414
aS'https://ks.anjuke.com/community/view/1035351'
p2415
aS'https://ks.anjuke.com/community/view/1035356'
p2416
aS'https://ks.anjuke.com/community/view/1035357'
p2417
aS'https://ks.anjuke.com/community/view/1035354'
p2418
aS'https://ks.anjuke.com/community/view/658983'
p2419
aS'https://ks.anjuke.com/community/view/1031664'
p2420
aS'https://ks.anjuke.com/community/view/1049761'
p2421
atRp2422
.